Component: ARM Compiler 5.06 update 7 (build 960) Tool: armlink [4d3601]

==============================================================================

Section Cross References

    startup_n32g45x.o(STACK) refers (Special) to heapauxi.o(.text) for __use_two_region_memory
    startup_n32g45x.o(HEAP) refers (Special) to heapauxi.o(.text) for __use_two_region_memory
    startup_n32g45x.o(RESET) refers (Special) to heapauxi.o(.text) for __use_two_region_memory
    startup_n32g45x.o(RESET) refers to startup_n32g45x.o(STACK) for __initial_sp
    startup_n32g45x.o(RESET) refers to startup_n32g45x.o(.text) for Reset_Handler
    startup_n32g45x.o(RESET) refers to n32g45x_it.o(i.NMI_Handler) for NMI_Handler
    startup_n32g45x.o(RESET) refers to context_rvds.o(.text) for HardFault_Handler
    startup_n32g45x.o(RESET) refers to n32g45x_it.o(i.MemManage_Handler) for MemManage_Handler
    startup_n32g45x.o(RESET) refers to n32g45x_it.o(i.BusFault_Handler) for BusFault_Handler
    startup_n32g45x.o(RESET) refers to n32g45x_it.o(i.UsageFault_Handler) for UsageFault_Handler
    startup_n32g45x.o(RESET) refers to n32g45x_it.o(i.SVC_Handler) for SVC_Handler
    startup_n32g45x.o(RESET) refers to n32g45x_it.o(i.DebugMon_Handler) for DebugMon_Handler
    startup_n32g45x.o(RESET) refers to bsp.o(i.SysTick_Handler) for SysTick_Handler
    startup_n32g45x.o(RESET) refers to n32g45x_it.o(i.EXTI4_IRQHandler) for EXTI4_IRQHandler
    startup_n32g45x.o(RESET) refers to usartx.o(i.DMA1_Channel2_IRQHandler) for DMA1_Channel2_IRQHandler
    startup_n32g45x.o(RESET) refers to usartx.o(i.DMA1_Channel4_IRQHandler) for DMA1_Channel4_IRQHandler
    startup_n32g45x.o(RESET) refers to user_can.o(i.USB_LP_CAN1_RX0_IRQHandler) for USB_LP_CAN1_RX0_IRQHandler
    startup_n32g45x.o(RESET) refers to n32g45x_it.o(i.EXTI9_5_IRQHandler) for EXTI9_5_IRQHandler
    startup_n32g45x.o(RESET) refers to charger.o(i.TIM1_UP_IRQHandler) for TIM1_UP_IRQHandler
    startup_n32g45x.o(RESET) refers to n32g45x_it.o(i.TIM3_IRQHandler) for TIM3_IRQHandler
    startup_n32g45x.o(RESET) refers to n32g45x_it.o(i.TIM4_IRQHandler) for TIM4_IRQHandler
    startup_n32g45x.o(RESET) refers to n32g45x_it.o(i.SPI1_IRQHandler) for SPI1_IRQHandler
    startup_n32g45x.o(RESET) refers to usartx.o(i.USART1_IRQHandler) for USART1_IRQHandler
    startup_n32g45x.o(RESET) refers to usartx.o(i.USART3_IRQHandler) for USART3_IRQHandler
    startup_n32g45x.o(RESET) refers to charger.o(i.TIM5_IRQHandler) for TIM5_IRQHandler
    startup_n32g45x.o(RESET) refers to usartx.o(i.UART4_IRQHandler) for UART4_IRQHandler
    startup_n32g45x.o(RESET) refers to usartx.o(i.UART5_IRQHandler) for UART5_IRQHandler
    startup_n32g45x.o(RESET) refers to usartx.o(i.DMA2_Channel5_IRQHandler) for DMA2_Channel5_IRQHandler
    startup_n32g45x.o(RESET) refers to user_can.o(i.CAN2_RX0_IRQHandler) for CAN2_RX0_IRQHandler
    startup_n32g45x.o(.text) refers (Special) to heapauxi.o(.text) for __use_two_region_memory
    startup_n32g45x.o(.text) refers to system_n32g45x.o(i.SystemInit) for SystemInit
    startup_n32g45x.o(.text) refers to __main.o(!!!main) for __main
    startup_n32g45x.o(.text) refers to startup_n32g45x.o(HEAP) for Heap_Mem
    startup_n32g45x.o(.text) refers to startup_n32g45x.o(STACK) for Stack_Mem
    system_n32g45x.o(i.SystemCoreClockUpdate) refers to system_n32g45x.o(.data) for .data
    system_n32g45x.o(i.SystemCoreClockUpdate) refers to system_n32g45x.o(.constdata) for .constdata
    system_n32g45x.o(i.SystemInit) refers to system_n32g45x.o(.data) for .data
    n32g45x_can.o(i.CAN_DeInit) refers to n32g45x_rcc.o(i.RCC_EnableAPB1PeriphReset) for RCC_EnableAPB1PeriphReset
    n32g45x_flash.o(i.FLASH_ConfigUserOB) refers to n32g45x_flash.o(i.FLASH_WaitForLastOpt) for FLASH_WaitForLastOpt
    n32g45x_flash.o(i.FLASH_EnWriteProtection) refers to n32g45x_flash.o(i.FLASH_WaitForLastOpt) for FLASH_WaitForLastOpt
    n32g45x_flash.o(i.FLASH_EraseOB) refers to n32g45x_flash.o(i.FLASH_WaitForLastOpt) for FLASH_WaitForLastOpt
    n32g45x_flash.o(i.FLASH_EraseOnePage) refers to n32g45x_flash.o(i.FLASH_WaitForLastOpt) for FLASH_WaitForLastOpt
    n32g45x_flash.o(i.FLASH_MassErase) refers to n32g45x_flash.o(i.FLASH_WaitForLastOpt) for FLASH_WaitForLastOpt
    n32g45x_flash.o(i.FLASH_ProgramOBData) refers to n32g45x_flash.o(i.FLASH_WaitForLastOpt) for FLASH_WaitForLastOpt
    n32g45x_flash.o(i.FLASH_ProgramWord) refers to n32g45x_flash.o(i.FLASH_WaitForLastOpt) for FLASH_WaitForLastOpt
    n32g45x_flash.o(i.FLASH_ReadOutProtectionL1) refers to n32g45x_flash.o(i.FLASH_WaitForLastOpt) for FLASH_WaitForLastOpt
    n32g45x_flash.o(i.FLASH_ReadOutProtectionL2_ENABLE) refers to n32g45x_flash.o(i.FLASH_WaitForLastOpt) for FLASH_WaitForLastOpt
    n32g45x_gpio.o(i.GPIO_AFIOInitDefault) refers to n32g45x_rcc.o(i.RCC_EnableAPB2PeriphReset) for RCC_EnableAPB2PeriphReset
    n32g45x_gpio.o(i.GPIO_DeInit) refers to n32g45x_rcc.o(i.RCC_EnableAPB2PeriphReset) for RCC_EnableAPB2PeriphReset
    n32g45x_rcc.o(i.RCC_GetClocksFreqValue) refers to n32g45x_rcc.o(.constdata) for .constdata
    n32g45x_tim.o(i.TIM_ConfigExtTrigAsClk) refers to n32g45x_tim.o(i.ConfigTI2) for ConfigTI2
    n32g45x_tim.o(i.TIM_ConfigPwmIc) refers to n32g45x_tim.o(i.ConfigTI2) for ConfigTI2
    n32g45x_tim.o(i.TIM_DeInit) refers to n32g45x_rcc.o(i.RCC_EnableAPB2PeriphReset) for RCC_EnableAPB2PeriphReset
    n32g45x_tim.o(i.TIM_DeInit) refers to n32g45x_rcc.o(i.RCC_EnableAPB1PeriphReset) for RCC_EnableAPB1PeriphReset
    n32g45x_tim.o(i.TIM_ICInit) refers to n32g45x_tim.o(i.ConfigTI2) for ConfigTI2
    n32g45x_usart.o(i.USART_DeInit) refers to n32g45x_rcc.o(i.RCC_EnableAPB2PeriphReset) for RCC_EnableAPB2PeriphReset
    n32g45x_usart.o(i.USART_DeInit) refers to n32g45x_rcc.o(i.RCC_EnableAPB1PeriphReset) for RCC_EnableAPB1PeriphReset
    n32g45x_usart.o(i.USART_Init) refers to n32g45x_rcc.o(i.RCC_GetClocksFreqValue) for RCC_GetClocksFreqValue
    n32g45x_spi.o(i.I2S_Init) refers to n32g45x_rcc.o(i.RCC_GetClocksFreqValue) for RCC_GetClocksFreqValue
    n32g45x_spi.o(i.SPI_I2S_DeInit) refers to n32g45x_rcc.o(i.RCC_EnableAPB1PeriphReset) for RCC_EnableAPB1PeriphReset
    n32g45x_spi.o(i.SPI_I2S_DeInit) refers to n32g45x_rcc.o(i.RCC_EnableAPB2PeriphReset) for RCC_EnableAPB2PeriphReset
    n32g45x_adc.o(i.ADC_ConfigClk) refers to n32g45x_rcc.o(i.RCC_ConfigAdcPllClk) for RCC_ConfigAdcPllClk
    n32g45x_adc.o(i.ADC_ConfigClk) refers to n32g45x_rcc.o(i.RCC_ConfigAdcHclk) for RCC_ConfigAdcHclk
    n32g45x_adc.o(i.ADC_DeInit) refers to n32g45x_rcc.o(i.RCC_EnableAHBPeriphReset) for RCC_EnableAHBPeriphReset
    application.o(i.InitTask) refers to mb.o(i.getPDUData) for getPDUData
    application.o(i.InitTask) refers to robot_select_init.o(i.Robot_Select) for Robot_Select
    application.o(i.InitTask) refers to thread.o(i.rt_thread_delay) for rt_thread_delay
    application.o(i.InitTask) refers to led.o(i.GPIO_Init) for GPIO_Init
    application.o(i.InitTask) refers to usartx.o(i.Usart1_Init) for Usart1_Init
    application.o(i.InitTask) refers to usartx.o(i.Usart3_Init) for Usart3_Init
    application.o(i.InitTask) refers to usartx.o(i.Uart4_Init) for Uart4_Init
    application.o(i.InitTask) refers to usartx.o(i.Uart5_Init) for Uart5_Init
    application.o(i.InitTask) refers to user_adc.o(i.Adc_Init) for Adc_Init
    application.o(i.InitTask) refers to user_can.o(i.Can_Driver_Init) for Can_Driver_Init
    application.o(i.InitTask) refers to rc_car.o(i.RCCAR_Init) for RCCAR_Init
    application.o(i.InitTask) refers to charger.o(i.NVIC_Config) for NVIC_Config
    application.o(i.InitTask) refers to charger.o(i.IR_RX_Init) for IR_RX_Init
    application.o(i.InitTask) refers to charger.o(i.IC_Init) for IC_Init
    application.o(i.InitTask) refers to usartx.o(i.JTAG_Set) for JTAG_Set
    application.o(i.InitTask) refers to thread.o(i.rt_thread_init) for rt_thread_init
    application.o(i.InitTask) refers to thread.o(i.rt_thread_startup) for rt_thread_startup
    application.o(i.InitTask) refers to application.o(.data) for .data
    application.o(i.InitTask) refers to application.o(.bss) for .bss
    application.o(i.InitTask) refers to balance.o(i.Balance_task) for Balance_task
    application.o(i.InitTask) refers to usartx.o(i.Modbus_task) for Modbus_task
    application.o(i.InitTask) refers to balance.o(i.Ultrasonic1_task) for Ultrasonic1_task
    application.o(i.InitTask) refers to balance.o(i.Ultrasonic2_task) for Ultrasonic2_task
    application.o(i.InitTask) refers to motor.o(i.Motor_task) for Motor_task
    application.o(i.InitTask) refers to motor.o(i.Motor_task) for Motor_task
    application.o(i.InitTask) refers to user_can.o(i.Can_task) for Can_task
    application.o(i.InitTask) refers to user_adc.o(i.ADC_task) for ADC_task
    application.o(i.InitTask) refers to usartx.o(i.DATA_task) for DATA_task
    application.o(i.rt_application_init) refers to thread.o(i.rt_thread_init) for rt_thread_init
    application.o(i.rt_application_init) refers to thread.o(i.rt_thread_startup) for rt_thread_startup
    application.o(i.rt_application_init) refers to application.o(.bss) for .bss
    application.o(i.rt_application_init) refers to application.o(i.InitTask) for InitTask
    main.o(i.main) refers to context_rvds.o(.text) for rt_hw_interrupt_disable
    main.o(i.main) refers to bsp.o(i.rt_hw_board_init) for rt_hw_board_init
    main.o(i.main) refers to scheduler.o(i.rt_system_scheduler_init) for rt_system_scheduler_init
    main.o(i.main) refers to timer.o(i.rt_system_timer_init) for rt_system_timer_init
    main.o(i.main) refers to mem.o(i.rt_system_heap_init) for rt_system_heap_init
    main.o(i.main) refers to timer.o(i.rt_system_timer_thread_init) for rt_system_timer_thread_init
    main.o(i.main) refers to usartx.o(i.modbus_task_init) for modbus_task_init
    main.o(i.main) refers to application.o(i.rt_application_init) for rt_application_init
    main.o(i.main) refers to idle.o(i.rt_thread_idle_init) for rt_thread_idle_init
    main.o(i.main) refers to scheduler.o(i.rt_system_scheduler_start) for rt_system_scheduler_start
    main.o(i.rtthread_startup) refers to bsp.o(i.rt_hw_board_init) for rt_hw_board_init
    main.o(i.rtthread_startup) refers to scheduler.o(i.rt_system_scheduler_init) for rt_system_scheduler_init
    main.o(i.rtthread_startup) refers to timer.o(i.rt_system_timer_init) for rt_system_timer_init
    main.o(i.rtthread_startup) refers to mem.o(i.rt_system_heap_init) for rt_system_heap_init
    main.o(i.rtthread_startup) refers to timer.o(i.rt_system_timer_thread_init) for rt_system_timer_thread_init
    main.o(i.rtthread_startup) refers to usartx.o(i.modbus_task_init) for modbus_task_init
    main.o(i.rtthread_startup) refers to application.o(i.rt_application_init) for rt_application_init
    main.o(i.rtthread_startup) refers to idle.o(i.rt_thread_idle_init) for rt_thread_idle_init
    main.o(i.rtthread_startup) refers to scheduler.o(i.rt_system_scheduler_start) for rt_system_scheduler_start
    n32g45x_it.o(i.EXTI4_IRQHandler) refers to n32g45x_exti.o(i.EXTI_GetITStatus) for EXTI_GetITStatus
    n32g45x_it.o(i.EXTI4_IRQHandler) refers to n32g45x_exti.o(i.EXTI_ClrITPendBit) for EXTI_ClrITPendBit
    n32g45x_it.o(i.EXTI4_IRQHandler) refers to n32g45x_tim.o(i.TIM_ClrIntPendingBit) for TIM_ClrIntPendingBit
    n32g45x_it.o(i.EXTI4_IRQHandler) refers to n32g45x_gpio.o(i.GPIO_ReadInputDataBit) for GPIO_ReadInputDataBit
    n32g45x_it.o(i.EXTI4_IRQHandler) refers to n32g45x_tim.o(i.TIM_SetCnt) for TIM_SetCnt
    n32g45x_it.o(i.EXTI4_IRQHandler) refers to n32g45x_tim.o(i.TIM_Enable) for TIM_Enable
    n32g45x_it.o(i.EXTI4_IRQHandler) refers to n32g45x_tim.o(i.TIM_GetCnt) for TIM_GetCnt
    n32g45x_it.o(i.EXTI4_IRQHandler) refers to led.o(i.UltrasonicSetEnable) for UltrasonicSetEnable
    n32g45x_it.o(i.EXTI4_IRQHandler) refers to balance.o(.data) for ultrasonic_t1tig_time
    n32g45x_it.o(i.EXTI9_5_IRQHandler) refers to n32g45x_exti.o(i.EXTI_GetITStatus) for EXTI_GetITStatus
    n32g45x_it.o(i.EXTI9_5_IRQHandler) refers to n32g45x_exti.o(i.EXTI_ClrITPendBit) for EXTI_ClrITPendBit
    n32g45x_it.o(i.EXTI9_5_IRQHandler) refers to n32g45x_gpio.o(i.GPIO_ReadInputDataBit) for GPIO_ReadInputDataBit
    n32g45x_it.o(i.EXTI9_5_IRQHandler) refers to n32g45x_tim.o(i.TIM_SetCnt) for TIM_SetCnt
    n32g45x_it.o(i.EXTI9_5_IRQHandler) refers to n32g45x_tim.o(i.TIM_Enable) for TIM_Enable
    n32g45x_it.o(i.EXTI9_5_IRQHandler) refers to led.o(i.UltrasonicSetEnable) for UltrasonicSetEnable
    n32g45x_it.o(i.EXTI9_5_IRQHandler) refers to balance.o(.data) for ultrasonic_t2tig_time
    n32g45x_it.o(i.SPI1_IRQHandler) refers to n32g45x_spi.o(i.SPI_I2S_GetStatus) for SPI_I2S_GetStatus
    n32g45x_it.o(i.SPI1_IRQHandler) refers to n32g45x_gpio.o(i.GPIO_WriteBit) for GPIO_WriteBit
    n32g45x_it.o(i.SPI1_IRQHandler) refers to balance.o(.data) for SPI_Master_Rx_Buffer
    n32g45x_it.o(i.TIM3_IRQHandler) refers to n32g45x_tim.o(i.TIM_GetIntStatus) for TIM_GetIntStatus
    n32g45x_it.o(i.TIM3_IRQHandler) refers to n32g45x_tim.o(i.TIM_ClrIntPendingBit) for TIM_ClrIntPendingBit
    n32g45x_it.o(i.TIM4_IRQHandler) refers to n32g45x_tim.o(i.TIM_GetIntStatus) for TIM_GetIntStatus
    n32g45x_it.o(i.TIM4_IRQHandler) refers to n32g45x_tim.o(i.TIM_ClrIntPendingBit) for TIM_ClrIntPendingBit
    n32g45x_it.o(i.TIM4_IRQHandler) refers to balance.o(.data) for ultrasonic_t2tig_time
    charger.o(i.ChargeDetection_Init) refers to n32g45x_rcc.o(i.RCC_EnableAPB2PeriphClk) for RCC_EnableAPB2PeriphClk
    charger.o(i.ChargeDetection_Init) refers to n32g45x_gpio.o(i.GPIO_InitPeripheral) for GPIO_InitPeripheral
    charger.o(i.ChargeDetection_Init) refers to n32g45x_gpio.o(i.GPIO_SetBits) for GPIO_SetBits
    charger.o(i.IC_Init) refers to n32g45x_rcc.o(i.RCC_EnableAPB1PeriphClk) for RCC_EnableAPB1PeriphClk
    charger.o(i.IC_Init) refers to n32g45x_rcc.o(i.RCC_EnableAPB2PeriphClk) for RCC_EnableAPB2PeriphClk
    charger.o(i.IC_Init) refers to n32g45x_gpio.o(i.GPIO_InitPeripheral) for GPIO_InitPeripheral
    charger.o(i.IC_Init) refers to n32g45x_tim.o(i.TIM_InitTimeBase) for TIM_InitTimeBase
    charger.o(i.IC_Init) refers to n32g45x_tim.o(i.TIM_ConfigPwmIc) for TIM_ConfigPwmIc
    charger.o(i.IC_Init) refers to n32g45x_tim.o(i.TIM_ClearFlag) for TIM_ClearFlag
    charger.o(i.IC_Init) refers to n32g45x_tim.o(i.TIM_ConfigInt) for TIM_ConfigInt
    charger.o(i.IC_Init) refers to n32g45x_tim.o(i.TIM_SelectInputTrig) for TIM_SelectInputTrig
    charger.o(i.IC_Init) refers to n32g45x_tim.o(i.TIM_SelectSlaveMode) for TIM_SelectSlaveMode
    charger.o(i.IC_Init) refers to n32g45x_tim.o(i.TIM_Enable) for TIM_Enable
    charger.o(i.IR_RX_Init) refers to n32g45x_rcc.o(i.RCC_EnableAPB2PeriphClk) for RCC_EnableAPB2PeriphClk
    charger.o(i.IR_RX_Init) refers to n32g45x_gpio.o(i.GPIO_InitPeripheral) for GPIO_InitPeripheral
    charger.o(i.IrDA_ReceiveData) refers to n32g45x_gpio.o(i.GPIO_ReadInputDataBit) for GPIO_ReadInputDataBit
    charger.o(i.IrDA_ReceiveData) refers to n32g45x_tim.o(i.TIM_GetCap2) for TIM_GetCap2
    charger.o(i.IrDA_ReceiveData) refers to charger.o(.data) for .data
    charger.o(i.Key_Change_RGB) refers to n32g45x_gpio.o(i.GPIO_ReadInputDataBit) for GPIO_ReadInputDataBit
    charger.o(i.Key_Change_RGB) refers to charger.o(.data) for .data
    charger.o(i.Key_Init) refers to n32g45x_rcc.o(i.RCC_EnableAPB2PeriphClk) for RCC_EnableAPB2PeriphClk
    charger.o(i.Key_Init) refers to n32g45x_gpio.o(i.GPIO_InitPeripheral) for GPIO_InitPeripheral
    charger.o(i.Key_Init) refers to n32g45x_gpio.o(i.GPIO_ResetBits) for GPIO_ResetBits
    charger.o(i.LimitSwitch_Init) refers to n32g45x_rcc.o(i.RCC_EnableAPB2PeriphClk) for RCC_EnableAPB2PeriphClk
    charger.o(i.LimitSwitch_Init) refers to n32g45x_gpio.o(i.GPIO_InitPeripheral) for GPIO_InitPeripheral
    charger.o(i.NVIC_Config) refers to misc.o(i.NVIC_PriorityGroupConfig) for NVIC_PriorityGroupConfig
    charger.o(i.NVIC_Config) refers to misc.o(i.NVIC_Init) for NVIC_Init
    charger.o(i.RGB_Init) refers to n32g45x_rcc.o(i.RCC_EnableAPB2PeriphClk) for RCC_EnableAPB2PeriphClk
    charger.o(i.RGB_Init) refers to n32g45x_gpio.o(i.GPIO_InitPeripheral) for GPIO_InitPeripheral
    charger.o(i.RGB_Init) refers to n32g45x_tim.o(i.TIM_InitTimeBase) for TIM_InitTimeBase
    charger.o(i.RGB_Init) refers to n32g45x_tim.o(i.TIM_InitOcStruct) for TIM_InitOcStruct
    charger.o(i.RGB_Init) refers to n32g45x_tim.o(i.TIM_InitOc4) for TIM_InitOc4
    charger.o(i.RGB_Init) refers to n32g45x_tim.o(i.TIM_ConfigOc4Preload) for TIM_ConfigOc4Preload
    charger.o(i.RGB_Init) refers to n32g45x_tim.o(i.TIM_ConfigArPreload) for TIM_ConfigArPreload
    charger.o(i.RGB_Init) refers to n32g45x_tim.o(i.TIM_ClearFlag) for TIM_ClearFlag
    charger.o(i.RGB_Init) refers to n32g45x_tim.o(i.TIM_ConfigInt) for TIM_ConfigInt
    charger.o(i.RGB_Init) refers to n32g45x_tim.o(i.TIM_Enable) for TIM_Enable
    charger.o(i.RGB_Init) refers to n32g45x_tim.o(i.TIM_EnableCtrlPwmOutputs) for TIM_EnableCtrlPwmOutputs
    charger.o(i.RGB_SetDuty) refers to n32g45x_tim.o(i.TIM_SetCmp4) for TIM_SetCmp4
    charger.o(i.RGB_SetValue) refers to n32g45x_tim.o(i.TIM_SetCmp4) for TIM_SetCmp4
    charger.o(i.RGB_SetValue) refers to charger.o(.data) for .data
    charger.o(i.RGB_ShowCharged) refers to charger.o(.data) for .data
    charger.o(i.RGB_ShowCharging) refers to charger.o(.data) for .data
    charger.o(i.RGB_ShowError) refers to charger.o(.data) for .data
    charger.o(i.Relay_Init) refers to n32g45x_rcc.o(i.RCC_EnableAPB2PeriphClk) for RCC_EnableAPB2PeriphClk
    charger.o(i.Relay_Init) refers to n32g45x_gpio.o(i.GPIO_InitPeripheral) for GPIO_InitPeripheral
    charger.o(i.Relay_Init) refers to n32g45x_gpio.o(i.GPIO_ResetBits) for GPIO_ResetBits
    charger.o(i.TIM1_UP_IRQHandler) refers to n32g45x_tim.o(i.TIM_GetIntStatus) for TIM_GetIntStatus
    charger.o(i.TIM1_UP_IRQHandler) refers to n32g45x_tim.o(i.TIM_ClrIntPendingBit) for TIM_ClrIntPendingBit
    charger.o(i.TIM1_UP_IRQHandler) refers to n32g45x_tim.o(i.TIM_SetCmp4) for TIM_SetCmp4
    charger.o(i.TIM1_UP_IRQHandler) refers to charger.o(i.RGB_SetValue) for RGB_SetValue
    charger.o(i.TIM1_UP_IRQHandler) refers to charger.o(.data) for .data
    charger.o(i.TIM5_IRQHandler) refers to n32g45x_tim.o(i.TIM_GetIntStatus) for TIM_GetIntStatus
    charger.o(i.TIM5_IRQHandler) refers to n32g45x_tim.o(i.TIM_ClrIntPendingBit) for TIM_ClrIntPendingBit
    charger.o(i.TIM5_IRQHandler) refers to charger.o(.data) for .data
    clock.o(i.rt_tick_get) refers to clock.o(.data) for .data
    clock.o(i.rt_tick_increase) refers to thread.o(i.rt_thread_self) for rt_thread_self
    clock.o(i.rt_tick_increase) refers to thread.o(i.rt_thread_yield) for rt_thread_yield
    clock.o(i.rt_tick_increase) refers to timer.o(i.rt_timer_check) for rt_timer_check
    clock.o(i.rt_tick_increase) refers to clock.o(.data) for .data
    clock.o(i.rt_tick_set) refers to context_rvds.o(.text) for rt_hw_interrupt_disable
    clock.o(i.rt_tick_set) refers to clock.o(.data) for .data
    components.o(i.rt_components_board_init) refers to components.o(.rti_fn.0.end) for .rti_fn.0.end
    components.o(i.rt_components_board_init) refers to components.o(.rti_fn.1.end) for .rti_fn.1.end
    components.o(i.rt_components_init) refers to components.o(.rti_fn.1.end) for .rti_fn.1.end
    components.o(i.rt_components_init) refers to components.o(.rti_fn.6.end) for .rti_fn.6.end
    components.o(.rti_fn.0) refers to components.o(i.rti_start) for rti_start
    components.o(.rti_fn.0.end) refers to components.o(i.rti_board_start) for rti_board_start
    components.o(.rti_fn.1.end) refers to components.o(i.rti_board_end) for rti_board_end
    components.o(.rti_fn.6.end) refers to components.o(i.rti_end) for rti_end
    device.o(i.rt_device_create) refers to mem.o(i.rt_malloc) for rt_malloc
    device.o(i.rt_device_create) refers to kservice.o(i.rt_memset) for rt_memset
    device.o(i.rt_device_destroy) refers to object.o(i.rt_object_detach) for rt_object_detach
    device.o(i.rt_device_destroy) refers to mem.o(i.rt_free) for rt_free
    device.o(i.rt_device_find) refers to thread.o(i.rt_thread_self) for rt_thread_self
    device.o(i.rt_device_find) refers to scheduler.o(i.rt_enter_critical) for rt_enter_critical
    device.o(i.rt_device_find) refers to object.o(i.rt_object_get_information) for rt_object_get_information
    device.o(i.rt_device_find) refers to kservice.o(i.rt_strncmp) for rt_strncmp
    device.o(i.rt_device_find) refers to scheduler.o(i.rt_exit_critical) for rt_exit_critical
    device.o(i.rt_device_read) refers to kservice.o(i.rt_set_errno) for rt_set_errno
    device.o(i.rt_device_register) refers to thread.o(i.rt_thread_self) for rt_thread_self
    device.o(i.rt_device_register) refers to scheduler.o(i.rt_enter_critical) for rt_enter_critical
    device.o(i.rt_device_register) refers to object.o(i.rt_object_get_information) for rt_object_get_information
    device.o(i.rt_device_register) refers to kservice.o(i.rt_strncmp) for rt_strncmp
    device.o(i.rt_device_register) refers to scheduler.o(i.rt_exit_critical) for rt_exit_critical
    device.o(i.rt_device_register) refers to object.o(i.rt_object_init) for rt_object_init
    device.o(i.rt_device_unregister) refers to object.o(i.rt_object_detach) for rt_object_detach
    device.o(i.rt_device_write) refers to kservice.o(i.rt_set_errno) for rt_set_errno
    idle.o(i.rt_thread_idle_entry) refers to context_rvds.o(.text) for rt_hw_interrupt_disable
    idle.o(i.rt_thread_idle_entry) refers to scheduler.o(i.rt_enter_critical) for rt_enter_critical
    idle.o(i.rt_thread_idle_entry) refers to object.o(i.rt_object_is_systemobject) for rt_object_is_systemobject
    idle.o(i.rt_thread_idle_entry) refers to scheduler.o(i.rt_exit_critical) for rt_exit_critical
    idle.o(i.rt_thread_idle_entry) refers to mem.o(i.rt_free) for rt_free
    idle.o(i.rt_thread_idle_entry) refers to object.o(i.rt_object_delete) for rt_object_delete
    idle.o(i.rt_thread_idle_entry) refers to object.o(i.rt_object_detach) for rt_object_detach
    idle.o(i.rt_thread_idle_entry) refers to scheduler.o(.data) for rt_thread_defunct
    idle.o(i.rt_thread_idle_excute) refers to context_rvds.o(.text) for rt_hw_interrupt_disable
    idle.o(i.rt_thread_idle_excute) refers to scheduler.o(i.rt_enter_critical) for rt_enter_critical
    idle.o(i.rt_thread_idle_excute) refers to object.o(i.rt_object_is_systemobject) for rt_object_is_systemobject
    idle.o(i.rt_thread_idle_excute) refers to scheduler.o(i.rt_exit_critical) for rt_exit_critical
    idle.o(i.rt_thread_idle_excute) refers to mem.o(i.rt_free) for rt_free
    idle.o(i.rt_thread_idle_excute) refers to object.o(i.rt_object_delete) for rt_object_delete
    idle.o(i.rt_thread_idle_excute) refers to object.o(i.rt_object_detach) for rt_object_detach
    idle.o(i.rt_thread_idle_excute) refers to scheduler.o(.data) for rt_thread_defunct
    idle.o(i.rt_thread_idle_gethandler) refers to idle.o(.bss) for .bss
    idle.o(i.rt_thread_idle_init) refers to thread.o(i.rt_thread_init) for rt_thread_init
    idle.o(i.rt_thread_idle_init) refers to thread.o(i.rt_thread_startup) for rt_thread_startup
    idle.o(i.rt_thread_idle_init) refers to idle.o(.bss) for .bss
    idle.o(i.rt_thread_idle_init) refers to idle.o(i.rt_thread_idle_entry) for rt_thread_idle_entry
    ipc.o(i.rt_sem_control) refers to context_rvds.o(.text) for rt_hw_interrupt_disable
    ipc.o(i.rt_sem_control) refers to thread.o(i.rt_thread_resume) for rt_thread_resume
    ipc.o(i.rt_sem_control) refers to scheduler.o(i.rt_schedule) for rt_schedule
    ipc.o(i.rt_sem_create) refers to object.o(i.rt_object_allocate) for rt_object_allocate
    ipc.o(i.rt_sem_delete) refers to context_rvds.o(.text) for rt_hw_interrupt_disable
    ipc.o(i.rt_sem_delete) refers to thread.o(i.rt_thread_resume) for rt_thread_resume
    ipc.o(i.rt_sem_delete) refers to object.o(i.rt_object_delete) for rt_object_delete
    ipc.o(i.rt_sem_detach) refers to context_rvds.o(.text) for rt_hw_interrupt_disable
    ipc.o(i.rt_sem_detach) refers to thread.o(i.rt_thread_resume) for rt_thread_resume
    ipc.o(i.rt_sem_detach) refers to object.o(i.rt_object_detach) for rt_object_detach
    ipc.o(i.rt_sem_init) refers to object.o(i.rt_object_init) for rt_object_init
    ipc.o(i.rt_sem_release) refers to context_rvds.o(.text) for rt_hw_interrupt_disable
    ipc.o(i.rt_sem_release) refers to thread.o(i.rt_thread_resume) for rt_thread_resume
    ipc.o(i.rt_sem_release) refers to scheduler.o(i.rt_schedule) for rt_schedule
    ipc.o(i.rt_sem_take) refers to context_rvds.o(.text) for rt_hw_interrupt_disable
    ipc.o(i.rt_sem_take) refers to thread.o(i.rt_thread_self) for rt_thread_self
    ipc.o(i.rt_sem_take) refers to thread.o(i.rt_thread_suspend) for rt_thread_suspend
    ipc.o(i.rt_sem_take) refers to timer.o(i.rt_timer_control) for rt_timer_control
    ipc.o(i.rt_sem_take) refers to timer.o(i.rt_timer_start) for rt_timer_start
    ipc.o(i.rt_sem_take) refers to scheduler.o(i.rt_schedule) for rt_schedule
    ipc.o(i.rt_sem_trytake) refers to ipc.o(i.rt_sem_take) for rt_sem_take
    irq.o(i.rt_interrupt_enter) refers to context_rvds.o(.text) for rt_hw_interrupt_disable
    irq.o(i.rt_interrupt_enter) refers to irq.o(.data) for .data
    irq.o(i.rt_interrupt_get_nest) refers to context_rvds.o(.text) for rt_hw_interrupt_disable
    irq.o(i.rt_interrupt_get_nest) refers to irq.o(.data) for .data
    irq.o(i.rt_interrupt_leave) refers to context_rvds.o(.text) for rt_hw_interrupt_disable
    irq.o(i.rt_interrupt_leave) refers to irq.o(.data) for .data
    kservice.o(i.__rt_ffs) refers to kservice.o(.constdata) for .constdata
    kservice.o(i._rt_errno) refers to irq.o(i.rt_interrupt_get_nest) for rt_interrupt_get_nest
    kservice.o(i._rt_errno) refers to thread.o(i.rt_thread_self) for rt_thread_self
    kservice.o(i._rt_errno) refers to kservice.o(.data) for .data
    kservice.o(i.print_number) refers to kservice.o(.constdata) for .constdata
    kservice.o(i.rt_free_align) refers to mem.o(i.rt_free) for rt_free
    kservice.o(i.rt_get_errno) refers to irq.o(i.rt_interrupt_get_nest) for rt_interrupt_get_nest
    kservice.o(i.rt_get_errno) refers to thread.o(i.rt_thread_self) for rt_thread_self
    kservice.o(i.rt_get_errno) refers to kservice.o(.data) for .data
    kservice.o(i.rt_malloc_align) refers to mem.o(i.rt_malloc) for rt_malloc
    kservice.o(i.rt_set_errno) refers to irq.o(i.rt_interrupt_get_nest) for rt_interrupt_get_nest
    kservice.o(i.rt_set_errno) refers to thread.o(i.rt_thread_self) for rt_thread_self
    kservice.o(i.rt_set_errno) refers to kservice.o(.data) for .data
    kservice.o(i.rt_snprintf) refers to kservice.o(i.rt_vsnprintf) for rt_vsnprintf
    kservice.o(i.rt_sprintf) refers to kservice.o(i.rt_vsnprintf) for rt_vsnprintf
    kservice.o(i.rt_strdup) refers to mem.o(i.rt_malloc) for rt_malloc
    kservice.o(i.rt_vsnprintf) refers to kservice.o(i.print_number) for print_number
    kservice.o(i.rt_vsprintf) refers to kservice.o(i.rt_vsnprintf) for rt_vsnprintf
    mem.o(i.rt_calloc) refers to mem.o(i.rt_malloc) for rt_malloc
    mem.o(i.rt_calloc) refers to kservice.o(i.rt_memset) for rt_memset
    mem.o(i.rt_free) refers to ipc.o(i.rt_sem_take) for rt_sem_take
    mem.o(i.rt_free) refers to ipc.o(i.rt_sem_release) for rt_sem_release
    mem.o(i.rt_free) refers to mem.o(.data) for .data
    mem.o(i.rt_free) refers to mem.o(.bss) for .bss
    mem.o(i.rt_malloc) refers to ipc.o(i.rt_sem_take) for rt_sem_take
    mem.o(i.rt_malloc) refers to ipc.o(i.rt_sem_release) for rt_sem_release
    mem.o(i.rt_malloc) refers to mem.o(.data) for .data
    mem.o(i.rt_malloc) refers to mem.o(.bss) for .bss
    mem.o(i.rt_memory_info) refers to mem.o(.data) for .data
    mem.o(i.rt_realloc) refers to ipc.o(i.rt_sem_take) for rt_sem_take
    mem.o(i.rt_realloc) refers to mem.o(i.rt_free) for rt_free
    mem.o(i.rt_realloc) refers to mem.o(i.rt_malloc) for rt_malloc
    mem.o(i.rt_realloc) refers to ipc.o(i.rt_sem_release) for rt_sem_release
    mem.o(i.rt_realloc) refers to kservice.o(i.rt_memcpy) for rt_memcpy
    mem.o(i.rt_realloc) refers to mem.o(.data) for .data
    mem.o(i.rt_realloc) refers to mem.o(.bss) for .bss
    mem.o(i.rt_system_heap_init) refers to ipc.o(i.rt_sem_init) for rt_sem_init
    mem.o(i.rt_system_heap_init) refers to mem.o(.data) for .data
    mem.o(i.rt_system_heap_init) refers to mem.o(.bss) for .bss
    memheap.o(i.rt_memheap_alloc) refers to ipc.o(i.rt_sem_take) for rt_sem_take
    memheap.o(i.rt_memheap_alloc) refers to kservice.o(i.rt_set_errno) for rt_set_errno
    memheap.o(i.rt_memheap_alloc) refers to ipc.o(i.rt_sem_release) for rt_sem_release
    memheap.o(i.rt_memheap_detach) refers to object.o(i.rt_object_detach) for rt_object_detach
    memheap.o(i.rt_memheap_free) refers to ipc.o(i.rt_sem_take) for rt_sem_take
    memheap.o(i.rt_memheap_free) refers to kservice.o(i.rt_set_errno) for rt_set_errno
    memheap.o(i.rt_memheap_free) refers to ipc.o(i.rt_sem_release) for rt_sem_release
    memheap.o(i.rt_memheap_init) refers to object.o(i.rt_object_init) for rt_object_init
    memheap.o(i.rt_memheap_init) refers to ipc.o(i.rt_sem_init) for rt_sem_init
    memheap.o(i.rt_memheap_realloc) refers to ipc.o(i.rt_sem_take) for rt_sem_take
    memheap.o(i.rt_memheap_realloc) refers to memheap.o(i.rt_memheap_free) for rt_memheap_free
    memheap.o(i.rt_memheap_realloc) refers to memheap.o(i.rt_memheap_alloc) for rt_memheap_alloc
    memheap.o(i.rt_memheap_realloc) refers to ipc.o(i.rt_sem_release) for rt_sem_release
    memheap.o(i.rt_memheap_realloc) refers to kservice.o(i.rt_memcpy) for rt_memcpy
    memheap.o(i.rt_memheap_realloc) refers to kservice.o(i.rt_set_errno) for rt_set_errno
    object.o(i.rt_object_allocate) refers to object.o(i.rt_object_get_information) for rt_object_get_information
    object.o(i.rt_object_allocate) refers to mem.o(i.rt_malloc) for rt_malloc
    object.o(i.rt_object_allocate) refers to kservice.o(i.rt_memset) for rt_memset
    object.o(i.rt_object_allocate) refers to kservice.o(i.rt_strncpy) for rt_strncpy
    object.o(i.rt_object_allocate) refers to context_rvds.o(.text) for rt_hw_interrupt_disable
    object.o(i.rt_object_delete) refers to context_rvds.o(.text) for rt_hw_interrupt_disable
    object.o(i.rt_object_delete) refers to mem.o(i.rt_free) for rt_free
    object.o(i.rt_object_detach) refers to context_rvds.o(.text) for rt_hw_interrupt_disable
    object.o(i.rt_object_find) refers to scheduler.o(i.rt_enter_critical) for rt_enter_critical
    object.o(i.rt_object_find) refers to object.o(i.rt_object_get_information) for rt_object_get_information
    object.o(i.rt_object_find) refers to kservice.o(i.rt_strncmp) for rt_strncmp
    object.o(i.rt_object_find) refers to scheduler.o(i.rt_exit_critical) for rt_exit_critical
    object.o(i.rt_object_get_information) refers to object.o(.data) for .data
    object.o(i.rt_object_init) refers to object.o(i.rt_object_get_information) for rt_object_get_information
    object.o(i.rt_object_init) refers to scheduler.o(i.rt_enter_critical) for rt_enter_critical
    object.o(i.rt_object_init) refers to scheduler.o(i.rt_exit_critical) for rt_exit_critical
    object.o(i.rt_object_init) refers to kservice.o(i.rt_strncpy) for rt_strncpy
    object.o(i.rt_object_init) refers to context_rvds.o(.text) for rt_hw_interrupt_disable
    scheduler.o(i.rt_critical_level) refers to scheduler.o(.data) for .data
    scheduler.o(i.rt_enter_critical) refers to context_rvds.o(.text) for rt_hw_interrupt_disable
    scheduler.o(i.rt_enter_critical) refers to scheduler.o(.data) for .data
    scheduler.o(i.rt_exit_critical) refers to context_rvds.o(.text) for rt_hw_interrupt_disable
    scheduler.o(i.rt_exit_critical) refers to kservice.o(i.__rt_ffs) for __rt_ffs
    scheduler.o(i.rt_exit_critical) refers to scheduler.o(.data) for .data
    scheduler.o(i.rt_exit_critical) refers to scheduler.o(.bss) for .bss
    scheduler.o(i.rt_exit_critical) refers to irq.o(.data) for rt_interrupt_nest
    scheduler.o(i.rt_schedule) refers to context_rvds.o(.text) for rt_hw_interrupt_disable
    scheduler.o(i.rt_schedule) refers to kservice.o(i.__rt_ffs) for __rt_ffs
    scheduler.o(i.rt_schedule) refers to scheduler.o(.data) for .data
    scheduler.o(i.rt_schedule) refers to scheduler.o(.bss) for .bss
    scheduler.o(i.rt_schedule) refers to irq.o(.data) for rt_interrupt_nest
    scheduler.o(i.rt_schedule_insert_thread) refers to context_rvds.o(.text) for rt_hw_interrupt_disable
    scheduler.o(i.rt_schedule_insert_thread) refers to scheduler.o(.bss) for .bss
    scheduler.o(i.rt_schedule_insert_thread) refers to scheduler.o(.data) for .data
    scheduler.o(i.rt_schedule_remove_thread) refers to context_rvds.o(.text) for rt_hw_interrupt_disable
    scheduler.o(i.rt_schedule_remove_thread) refers to scheduler.o(.bss) for .bss
    scheduler.o(i.rt_schedule_remove_thread) refers to scheduler.o(.data) for .data
    scheduler.o(i.rt_system_scheduler_init) refers to scheduler.o(.data) for .data
    scheduler.o(i.rt_system_scheduler_init) refers to scheduler.o(.bss) for .bss
    scheduler.o(i.rt_system_scheduler_start) refers to kservice.o(i.__rt_ffs) for __rt_ffs
    scheduler.o(i.rt_system_scheduler_start) refers to context_rvds.o(.text) for rt_hw_context_switch_to
    scheduler.o(i.rt_system_scheduler_start) refers to scheduler.o(.data) for .data
    scheduler.o(i.rt_system_scheduler_start) refers to scheduler.o(.bss) for .bss
    thread.o(i.rt_thread_control) refers to context_rvds.o(.text) for rt_hw_interrupt_disable
    thread.o(i.rt_thread_control) refers to scheduler.o(i.rt_schedule_remove_thread) for rt_schedule_remove_thread
    thread.o(i.rt_thread_control) refers to scheduler.o(i.rt_schedule_insert_thread) for rt_schedule_insert_thread
    thread.o(i.rt_thread_control) refers to timer.o(i.rt_timer_stop) for rt_timer_stop
    thread.o(i.rt_thread_control) refers to scheduler.o(i.rt_schedule) for rt_schedule
    thread.o(i.rt_thread_control) refers to timer.o(i.rt_timer_detach) for rt_timer_detach
    thread.o(i.rt_thread_control) refers to scheduler.o(.data) for rt_current_thread
    thread.o(i.rt_thread_create) refers to object.o(i.rt_object_allocate) for rt_object_allocate
    thread.o(i.rt_thread_create) refers to mem.o(i.rt_malloc) for rt_malloc
    thread.o(i.rt_thread_create) refers to kservice.o(i.rt_memset) for rt_memset
    thread.o(i.rt_thread_create) refers to cpuport.o(i.rt_hw_stack_init) for rt_hw_stack_init
    thread.o(i.rt_thread_create) refers to timer.o(i.rt_timer_init) for rt_timer_init
    thread.o(i.rt_thread_create) refers to object.o(i.rt_object_delete) for rt_object_delete
    thread.o(i.rt_thread_create) refers to thread.o(i.rt_thread_exit) for rt_thread_exit
    thread.o(i.rt_thread_create) refers to thread.o(i.rt_thread_timeout) for rt_thread_timeout
    thread.o(i.rt_thread_delay) refers to context_rvds.o(.text) for rt_hw_interrupt_disable
    thread.o(i.rt_thread_delay) refers to scheduler.o(i.rt_schedule_remove_thread) for rt_schedule_remove_thread
    thread.o(i.rt_thread_delay) refers to timer.o(i.rt_timer_stop) for rt_timer_stop
    thread.o(i.rt_thread_delay) refers to timer.o(i.rt_timer_control) for rt_timer_control
    thread.o(i.rt_thread_delay) refers to timer.o(i.rt_timer_start) for rt_timer_start
    thread.o(i.rt_thread_delay) refers to scheduler.o(i.rt_schedule) for rt_schedule
    thread.o(i.rt_thread_delay) refers to scheduler.o(.data) for rt_current_thread
    thread.o(i.rt_thread_delay_until) refers to context_rvds.o(.text) for rt_hw_interrupt_disable
    thread.o(i.rt_thread_delay_until) refers to clock.o(i.rt_tick_get) for rt_tick_get
    thread.o(i.rt_thread_delay_until) refers to scheduler.o(i.rt_schedule_remove_thread) for rt_schedule_remove_thread
    thread.o(i.rt_thread_delay_until) refers to timer.o(i.rt_timer_stop) for rt_timer_stop
    thread.o(i.rt_thread_delay_until) refers to timer.o(i.rt_timer_control) for rt_timer_control
    thread.o(i.rt_thread_delay_until) refers to timer.o(i.rt_timer_start) for rt_timer_start
    thread.o(i.rt_thread_delay_until) refers to scheduler.o(i.rt_schedule) for rt_schedule
    thread.o(i.rt_thread_delay_until) refers to scheduler.o(.data) for rt_current_thread
    thread.o(i.rt_thread_delete) refers to scheduler.o(i.rt_schedule_remove_thread) for rt_schedule_remove_thread
    thread.o(i.rt_thread_delete) refers to timer.o(i.rt_timer_detach) for rt_timer_detach
    thread.o(i.rt_thread_delete) refers to context_rvds.o(.text) for rt_hw_interrupt_disable
    thread.o(i.rt_thread_delete) refers to scheduler.o(.data) for rt_thread_defunct
    thread.o(i.rt_thread_detach) refers to scheduler.o(i.rt_schedule_remove_thread) for rt_schedule_remove_thread
    thread.o(i.rt_thread_detach) refers to timer.o(i.rt_timer_detach) for rt_timer_detach
    thread.o(i.rt_thread_detach) refers to object.o(i.rt_object_is_systemobject) for rt_object_is_systemobject
    thread.o(i.rt_thread_detach) refers to context_rvds.o(.text) for rt_hw_interrupt_disable
    thread.o(i.rt_thread_detach) refers to object.o(i.rt_object_detach) for rt_object_detach
    thread.o(i.rt_thread_detach) refers to scheduler.o(.data) for rt_thread_defunct
    thread.o(i.rt_thread_exit) refers to context_rvds.o(.text) for rt_hw_interrupt_disable
    thread.o(i.rt_thread_exit) refers to scheduler.o(i.rt_schedule_remove_thread) for rt_schedule_remove_thread
    thread.o(i.rt_thread_exit) refers to timer.o(i.rt_timer_detach) for rt_timer_detach
    thread.o(i.rt_thread_exit) refers to object.o(i.rt_object_is_systemobject) for rt_object_is_systemobject
    thread.o(i.rt_thread_exit) refers to scheduler.o(i.rt_schedule) for rt_schedule
    thread.o(i.rt_thread_exit) refers to object.o(i.rt_object_detach) for rt_object_detach
    thread.o(i.rt_thread_exit) refers to scheduler.o(.data) for rt_current_thread
    thread.o(i.rt_thread_find) refers to scheduler.o(i.rt_enter_critical) for rt_enter_critical
    thread.o(i.rt_thread_find) refers to object.o(i.rt_object_get_information) for rt_object_get_information
    thread.o(i.rt_thread_find) refers to kservice.o(i.rt_strncmp) for rt_strncmp
    thread.o(i.rt_thread_find) refers to scheduler.o(i.rt_exit_critical) for rt_exit_critical
    thread.o(i.rt_thread_find) refers to scheduler.o(.data) for rt_current_thread
    thread.o(i.rt_thread_init) refers to object.o(i.rt_object_init) for rt_object_init
    thread.o(i.rt_thread_init) refers to kservice.o(i.rt_memset) for rt_memset
    thread.o(i.rt_thread_init) refers to cpuport.o(i.rt_hw_stack_init) for rt_hw_stack_init
    thread.o(i.rt_thread_init) refers to timer.o(i.rt_timer_init) for rt_timer_init
    thread.o(i.rt_thread_init) refers to thread.o(i.rt_thread_exit) for rt_thread_exit
    thread.o(i.rt_thread_init) refers to thread.o(i.rt_thread_timeout) for rt_thread_timeout
    thread.o(i.rt_thread_mdelay) refers to clock.o(i.rt_tick_from_millisecond) for rt_tick_from_millisecond
    thread.o(i.rt_thread_mdelay) refers to context_rvds.o(.text) for rt_hw_interrupt_disable
    thread.o(i.rt_thread_mdelay) refers to scheduler.o(i.rt_schedule_remove_thread) for rt_schedule_remove_thread
    thread.o(i.rt_thread_mdelay) refers to timer.o(i.rt_timer_stop) for rt_timer_stop
    thread.o(i.rt_thread_mdelay) refers to timer.o(i.rt_timer_control) for rt_timer_control
    thread.o(i.rt_thread_mdelay) refers to timer.o(i.rt_timer_start) for rt_timer_start
    thread.o(i.rt_thread_mdelay) refers to scheduler.o(i.rt_schedule) for rt_schedule
    thread.o(i.rt_thread_mdelay) refers to scheduler.o(.data) for rt_current_thread
    thread.o(i.rt_thread_resume) refers to context_rvds.o(.text) for rt_hw_interrupt_disable
    thread.o(i.rt_thread_resume) refers to timer.o(i.rt_timer_stop) for rt_timer_stop
    thread.o(i.rt_thread_resume) refers to scheduler.o(i.rt_schedule_insert_thread) for rt_schedule_insert_thread
    thread.o(i.rt_thread_self) refers to scheduler.o(.data) for rt_current_thread
    thread.o(i.rt_thread_sleep) refers to context_rvds.o(.text) for rt_hw_interrupt_disable
    thread.o(i.rt_thread_sleep) refers to scheduler.o(i.rt_schedule_remove_thread) for rt_schedule_remove_thread
    thread.o(i.rt_thread_sleep) refers to timer.o(i.rt_timer_stop) for rt_timer_stop
    thread.o(i.rt_thread_sleep) refers to timer.o(i.rt_timer_control) for rt_timer_control
    thread.o(i.rt_thread_sleep) refers to timer.o(i.rt_timer_start) for rt_timer_start
    thread.o(i.rt_thread_sleep) refers to scheduler.o(i.rt_schedule) for rt_schedule
    thread.o(i.rt_thread_sleep) refers to scheduler.o(.data) for rt_current_thread
    thread.o(i.rt_thread_startup) refers to context_rvds.o(.text) for rt_hw_interrupt_disable
    thread.o(i.rt_thread_startup) refers to timer.o(i.rt_timer_stop) for rt_timer_stop
    thread.o(i.rt_thread_startup) refers to scheduler.o(i.rt_schedule_insert_thread) for rt_schedule_insert_thread
    thread.o(i.rt_thread_startup) refers to scheduler.o(i.rt_schedule) for rt_schedule
    thread.o(i.rt_thread_startup) refers to scheduler.o(.data) for rt_current_thread
    thread.o(i.rt_thread_suspend) refers to context_rvds.o(.text) for rt_hw_interrupt_disable
    thread.o(i.rt_thread_suspend) refers to scheduler.o(i.rt_schedule_remove_thread) for rt_schedule_remove_thread
    thread.o(i.rt_thread_suspend) refers to timer.o(i.rt_timer_stop) for rt_timer_stop
    thread.o(i.rt_thread_timeout) refers to scheduler.o(i.rt_schedule_insert_thread) for rt_schedule_insert_thread
    thread.o(i.rt_thread_timeout) refers to scheduler.o(i.rt_schedule) for rt_schedule
    thread.o(i.rt_thread_yield) refers to context_rvds.o(.text) for rt_hw_interrupt_disable
    thread.o(i.rt_thread_yield) refers to scheduler.o(i.rt_schedule) for rt_schedule
    thread.o(i.rt_thread_yield) refers to scheduler.o(.data) for rt_current_thread
    thread.o(i.rt_thread_yield) refers to scheduler.o(.bss) for rt_thread_priority_table
    timer.o(i.rt_system_timer_init) refers to timer.o(.data) for .data
    timer.o(i.rt_timer_check) refers to clock.o(i.rt_tick_get) for rt_tick_get
    timer.o(i.rt_timer_check) refers to context_rvds.o(.text) for rt_hw_interrupt_disable
    timer.o(i.rt_timer_check) refers to timer.o(.data) for .data
    timer.o(i.rt_timer_create) refers to object.o(i.rt_object_allocate) for rt_object_allocate
    timer.o(i.rt_timer_delete) refers to context_rvds.o(.text) for rt_hw_interrupt_disable
    timer.o(i.rt_timer_delete) refers to object.o(i.rt_object_delete) for rt_object_delete
    timer.o(i.rt_timer_detach) refers to context_rvds.o(.text) for rt_hw_interrupt_disable
    timer.o(i.rt_timer_detach) refers to object.o(i.rt_object_detach) for rt_object_detach
    timer.o(i.rt_timer_init) refers to object.o(i.rt_object_init) for rt_object_init
    timer.o(i.rt_timer_next_timeout_tick) refers to timer.o(.data) for .data
    timer.o(i.rt_timer_start) refers to context_rvds.o(.text) for rt_hw_interrupt_disable
    timer.o(i.rt_timer_start) refers to clock.o(i.rt_tick_get) for rt_tick_get
    timer.o(i.rt_timer_start) refers to timer.o(.data) for .data
    timer.o(i.rt_timer_stop) refers to context_rvds.o(.text) for rt_hw_interrupt_disable
    cpuport.o(i.rt_hw_exception_install) refers to cpuport.o(.data) for .data
    cpuport.o(i.rt_hw_hard_fault_exception) refers to cpuport.o(.data) for .data
    context_rvds.o(.text) refers to cpuport.o(i.rt_hw_hard_fault_exception) for rt_hw_hard_fault_exception
    context_rvds.o(.text) refers to cpuport.o(.data) for rt_thread_switch_interrupt_flag
    context_rvds.o(.text) refers to cpuport.o(.data) for rt_interrupt_from_thread
    context_rvds.o(.text) refers to cpuport.o(.data) for rt_interrupt_to_thread
    bsp.o(i.SysTick_Handler) refers to irq.o(i.rt_interrupt_enter) for rt_interrupt_enter
    bsp.o(i.SysTick_Handler) refers to clock.o(i.rt_tick_increase) for rt_tick_increase
    bsp.o(i.SysTick_Handler) refers to irq.o(i.rt_interrupt_leave) for rt_interrupt_leave
    bsp.o(i.print_rcc_freq_info) refers to n32g45x_rcc.o(i.RCC_GetClocksFreqValue) for RCC_GetClocksFreqValue
    bsp.o(i.rt_hw_board_init) refers to n32g45x_rcc.o(i.RCC_GetClocksFreqValue) for RCC_GetClocksFreqValue
    bsp.o(i.rt_hw_board_init) refers to system_n32g45x.o(.data) for SystemCoreClock
    led.o(i.ExioInit) refers to n32g45x_rcc.o(i.RCC_EnableAPB2PeriphClk) for RCC_EnableAPB2PeriphClk
    led.o(i.ExioInit) refers to n32g45x_gpio.o(i.GPIO_InitPeripheral) for GPIO_InitPeripheral
    led.o(i.ExioInit) refers to n32g45x_gpio.o(i.GPIO_WriteBit) for GPIO_WriteBit
    led.o(i.ExioInit) refers to n32g45x_spi.o(i.SPI_Init) for SPI_Init
    led.o(i.ExioInit) refers to misc.o(i.NVIC_Init) for NVIC_Init
    led.o(i.ExioInit) refers to n32g45x_spi.o(i.SPI_I2S_EnableInt) for SPI_I2S_EnableInt
    led.o(i.ExioInit) refers to n32g45x_spi.o(i.SPI_Enable) for SPI_Enable
    led.o(i.GPIO_Init) refers to n32g45x_rcc.o(i.RCC_EnableAPB2PeriphClk) for RCC_EnableAPB2PeriphClk
    led.o(i.GPIO_Init) refers to n32g45x_gpio.o(i.GPIO_InitPeripheral) for GPIO_InitPeripheral
    led.o(i.GPIO_Init) refers to n32g45x_gpio.o(i.GPIO_SetBits) for GPIO_SetBits
    led.o(i.GPIO_Init) refers to n32g45x_gpio.o(i.GPIO_WriteBit) for GPIO_WriteBit
    led.o(i.GPIO_Init) refers to n32g45x_spi.o(i.SPI_Init) for SPI_Init
    led.o(i.GPIO_Init) refers to misc.o(i.NVIC_Init) for NVIC_Init
    led.o(i.GPIO_Init) refers to n32g45x_spi.o(i.SPI_I2S_EnableInt) for SPI_I2S_EnableInt
    led.o(i.GPIO_Init) refers to n32g45x_spi.o(i.SPI_Enable) for SPI_Enable
    led.o(i.GPIO_Init) refers to n32g45x_rcc.o(i.RCC_EnableAPB1PeriphClk) for RCC_EnableAPB1PeriphClk
    led.o(i.GPIO_Init) refers to n32g45x_gpio.o(i.GPIO_ResetBits) for GPIO_ResetBits
    led.o(i.GPIO_Init) refers to thread.o(i.rt_thread_delay) for rt_thread_delay
    led.o(i.LedInit) refers to n32g45x_gpio.o(i.GPIO_InitPeripheral) for GPIO_InitPeripheral
    led.o(i.LedInit) refers to n32g45x_rcc.o(i.RCC_EnableAPB2PeriphClk) for RCC_EnableAPB2PeriphClk
    led.o(i.UltrasonicInit) refers to n32g45x_rcc.o(i.RCC_EnableAPB1PeriphClk) for RCC_EnableAPB1PeriphClk
    led.o(i.UltrasonicInit) refers to n32g45x_rcc.o(i.RCC_EnableAPB2PeriphClk) for RCC_EnableAPB2PeriphClk
    led.o(i.UltrasonicInit) refers to n32g45x_gpio.o(i.GPIO_InitPeripheral) for GPIO_InitPeripheral
    led.o(i.UltrasonicInit) refers to n32g45x_gpio.o(i.GPIO_ResetBits) for GPIO_ResetBits
    led.o(i.UltrasonicSetEnable) refers to misc.o(i.NVIC_Init) for NVIC_Init
    user_can.o(i.CAN1_Filter_Init) refers to n32g45x_can.o(i.CAN1_InitFilter) for CAN1_InitFilter
    user_can.o(i.CAN1_Filter_Init) refers to n32g45x_can.o(i.CAN_INTConfig) for CAN_INTConfig
    user_can.o(i.CAN2_Filter_Init) refers to n32g45x_can.o(i.CAN2_InitFilter) for CAN2_InitFilter
    user_can.o(i.CAN2_Filter_Init) refers to n32g45x_can.o(i.CAN_INTConfig) for CAN_INTConfig
    user_can.o(i.CAN2_RX0_IRQHandler) refers to user_can.o(i.CanIRQProcess) for CanIRQProcess
    user_can.o(i.CAN2_RX0_IRQHandler) refers to user_can.o(i.CanIRQProcessFor8015D) for CanIRQProcessFor8015D
    user_can.o(i.CAN2_RX0_IRQHandler) refers to application.o(.data) for g_emCarMode
    user_can.o(i.CAN_Config) refers to n32g45x_rcc.o(i.RCC_EnableAPB1PeriphClk) for RCC_EnableAPB1PeriphClk
    user_can.o(i.CAN_Config) refers to n32g45x_can.o(i.CAN_DeInit) for CAN_DeInit
    user_can.o(i.CAN_Config) refers to n32g45x_can.o(i.CAN_InitStruct) for CAN_InitStruct
    user_can.o(i.CAN_Config) refers to n32g45x_can.o(i.CAN_Init) for CAN_Init
    user_can.o(i.CAN_Config) refers to n32g45x_can.o(i.CAN1_InitFilter) for CAN1_InitFilter
    user_can.o(i.CAN_Config) refers to n32g45x_can.o(i.CAN_INTConfig) for CAN_INTConfig
    user_can.o(i.CAN_Config) refers to n32g45x_can.o(i.CAN2_InitFilter) for CAN2_InitFilter
    user_can.o(i.CAN_GPIO_Config) refers to n32g45x_gpio.o(i.GPIO_InitStruct) for GPIO_InitStruct
    user_can.o(i.CAN_GPIO_Config) refers to n32g45x_rcc.o(i.RCC_EnableAPB2PeriphClk) for RCC_EnableAPB2PeriphClk
    user_can.o(i.CAN_GPIO_Config) refers to n32g45x_gpio.o(i.GPIO_InitPeripheral) for GPIO_InitPeripheral
    user_can.o(i.CAN_GPIO_Config) refers to n32g45x_gpio.o(i.GPIO_ConfigPinRemap) for GPIO_ConfigPinRemap
    user_can.o(i.CAN_NVIC_Config) refers to misc.o(i.NVIC_PriorityGroupConfig) for NVIC_PriorityGroupConfig
    user_can.o(i.CAN_NVIC_Config) refers to misc.o(i.NVIC_Init) for NVIC_Init
    user_can.o(i.CAN_PDOSend) refers to n32g45x_can.o(i.CAN_TransmitMessage) for CAN_TransmitMessage
    user_can.o(i.CAN_PDOSend) refers to motor.o(.bss) for mrd
    user_can.o(i.CAN_PDOSend) refers to user_can.o(.data) for .data
    user_can.o(i.CAN_PDOSendFor8015D) refers to n32g45x_can.o(i.CAN_TransmitMessage) for CAN_TransmitMessage
    user_can.o(i.CAN_PDOSendFor8015D) refers to motor.o(.bss) for mrd
    user_can.o(i.CAN_SDOSend) refers to n32g45x_can.o(i.CAN_TransmitMessage) for CAN_TransmitMessage
    user_can.o(i.CAN_SDOSend) refers to mem.o(i.rt_free) for rt_free
    user_can.o(i.CAN_SDOSend) refers to user_can.o(.data) for .data
    user_can.o(i.CanIRQProcess) refers to n32g45x_can.o(i.CAN_ReceiveMessage) for CAN_ReceiveMessage
    user_can.o(i.CanIRQProcess) refers to n32g45x_can.o(i.CAN_ClearFlag) for CAN_ClearFlag
    user_can.o(i.CanIRQProcess) refers to motor.o(.bss) for mtd
    user_can.o(i.CanIRQProcessFor8015D) refers to n32g45x_can.o(i.CAN_ReceiveMessage) for CAN_ReceiveMessage
    user_can.o(i.CanIRQProcessFor8015D) refers to n32g45x_can.o(i.CAN_ClearFlag) for CAN_ClearFlag
    user_can.o(i.CanIRQProcessFor8015D) refers to motor.o(.bss) for mrd
    user_can.o(i.Can_Driver_Init) refers to misc.o(i.NVIC_PriorityGroupConfig) for NVIC_PriorityGroupConfig
    user_can.o(i.Can_Driver_Init) refers to misc.o(i.NVIC_Init) for NVIC_Init
    user_can.o(i.Can_Driver_Init) refers to n32g45x_gpio.o(i.GPIO_InitStruct) for GPIO_InitStruct
    user_can.o(i.Can_Driver_Init) refers to n32g45x_rcc.o(i.RCC_EnableAPB2PeriphClk) for RCC_EnableAPB2PeriphClk
    user_can.o(i.Can_Driver_Init) refers to n32g45x_gpio.o(i.GPIO_InitPeripheral) for GPIO_InitPeripheral
    user_can.o(i.Can_Driver_Init) refers to n32g45x_gpio.o(i.GPIO_ConfigPinRemap) for GPIO_ConfigPinRemap
    user_can.o(i.Can_Driver_Init) refers to user_can.o(i.CAN_Config) for CAN_Config
    user_can.o(i.Can_task) refers to thread.o(i.rt_thread_delay) for rt_thread_delay
    user_can.o(i.Can_task) refers to n32g45x_can.o(i.CAN_TransmitMessage) for CAN_TransmitMessage
    user_can.o(i.Can_task) refers to mem.o(i.rt_free) for rt_free
    user_can.o(i.Can_task) refers to motor.o(.bss) for mrd
    user_can.o(i.Can_task) refers to user_can.o(.data) for .data
    user_can.o(i.Can_task) refers to application.o(.data) for g_emCarMode
    user_can.o(i.Can_task) refers to motor.o(.data) for Motor_Number
    user_can.o(i.DevCANOpen_send_sdo) refers to n32g45x_can.o(i.CAN_TransmitMessage) for CAN_TransmitMessage
    user_can.o(i.IsSdoEmpty) refers to user_can.o(.data) for .data
    user_can.o(i.NMT_Control) refers to user_can.o(i.SdoFramCereat) for SdoFramCereat
    user_can.o(i.PLAN_PDO_Config) refers to rt_memcpy_w.o(.text) for __aeabi_memcpy4
    user_can.o(i.PLAN_PDO_Config) refers to mem.o(i.rt_malloc) for rt_malloc
    user_can.o(i.PLAN_PDO_Config) refers to user_can.o(.constdata) for .constdata
    user_can.o(i.PLAN_PDO_Config) refers to user_can.o(.data) for .data
    user_can.o(i.PointFramCereat) refers to mem.o(i.rt_malloc) for rt_malloc
    user_can.o(i.PointFramCereat) refers to user_can.o(.data) for .data
    user_can.o(i.Reset_Driver) refers to n32g45x_can.o(i.CAN_TransmitMessage) for CAN_TransmitMessage
    user_can.o(i.Save_EEPROM) refers to n32g45x_can.o(i.CAN_TransmitMessage) for CAN_TransmitMessage
    user_can.o(i.SdoFramCereat) refers to mem.o(i.rt_malloc) for rt_malloc
    user_can.o(i.SdoFramCereat) refers to user_can.o(.data) for .data
    user_can.o(i.USB_LP_CAN1_RX0_IRQHandler) refers to user_can.o(i.CanIRQProcess) for CanIRQProcess
    user_can.o(i.USB_LP_CAN1_RX0_IRQHandler) refers to user_can.o(i.CanIRQProcessFor8015D) for CanIRQProcessFor8015D
    user_can.o(i.USB_LP_CAN1_RX0_IRQHandler) refers to application.o(.data) for g_emCarMode
    user_can.o(i.WANZER_PDO_Config) refers to rt_memcpy_w.o(.text) for __aeabi_memcpy4
    user_can.o(i.WANZER_PDO_Config) refers to mem.o(i.rt_malloc) for rt_malloc
    user_can.o(i.WANZER_PDO_Config) refers to user_can.o(.constdata) for .constdata
    user_can.o(i.WANZER_PDO_Config) refers to user_can.o(.data) for .data
    user_can.o(i.ZLAC8015D_PDO_Config) refers to rt_memcpy_w.o(.text) for __aeabi_memcpy4
    user_can.o(i.ZLAC8015D_PDO_Config) refers to mem.o(i.rt_malloc) for rt_malloc
    user_can.o(i.ZLAC8015D_PDO_Config) refers to user_can.o(.constdata) for .constdata
    user_can.o(i.ZLAC8015D_PDO_Config) refers to user_can.o(.data) for .data
    user_can.o(i.ZLAC8015_PDO_Config) refers to rt_memcpy_w.o(.text) for __aeabi_memcpy4
    user_can.o(i.ZLAC8015_PDO_Config) refers to mem.o(i.rt_malloc) for rt_malloc
    user_can.o(i.ZLAC8015_PDO_Config) refers to user_can.o(.constdata) for .constdata
    user_can.o(i.ZLAC8015_PDO_Config) refers to user_can.o(.data) for .data
    can.o(i.cantimeout) refers to device.o(i.rt_device_control) for rt_device_control
    can.o(i.rt_can_close) refers to timer.o(i.rt_timer_stop) for rt_timer_stop
    can.o(i.rt_can_close) refers to mem.o(i.rt_free) for rt_free
    can.o(i.rt_can_close) refers to ipc.o(i.rt_sem_detach) for rt_sem_detach
    can.o(i.rt_can_control) refers to context_rvds.o(.text) for rt_hw_interrupt_disable
    can.o(i.rt_can_control) refers to ipc.o(i.rt_sem_release) for rt_sem_release
    can.o(i.rt_can_open) refers to mem.o(i.rt_malloc) for rt_malloc
    can.o(i.rt_can_open) refers to kservice.o(i.rt_memset) for rt_memset
    can.o(i.rt_can_open) refers to completion.o(i.rt_completion_init) for rt_completion_init
    can.o(i.rt_can_open) refers to kservice.o(i.rt_sprintf) for rt_sprintf
    can.o(i.rt_can_open) refers to ipc.o(i.rt_sem_init) for rt_sem_init
    can.o(i.rt_can_open) refers to timer.o(i.rt_timer_start) for rt_timer_start
    can.o(i.rt_can_read) refers to context_rvds.o(.text) for rt_hw_interrupt_disable
    can.o(i.rt_can_read) refers to kservice.o(i.rt_memcpy) for rt_memcpy
    can.o(i.rt_can_write) refers to context_rvds.o(.text) for rt_hw_interrupt_disable
    can.o(i.rt_can_write) refers to completion.o(i.rt_completion_wait) for rt_completion_wait
    can.o(i.rt_can_write) refers to ipc.o(i.rt_sem_take) for rt_sem_take
    can.o(i.rt_can_write) refers to ipc.o(i.rt_sem_release) for rt_sem_release
    can.o(i.rt_hw_can_isr) refers to context_rvds.o(.text) for rt_hw_interrupt_disable
    can.o(i.rt_hw_can_isr) refers to kservice.o(i.rt_memcpy) for rt_memcpy
    can.o(i.rt_hw_can_isr) refers to completion.o(i.rt_completion_done) for rt_completion_done
    can.o(i.rt_hw_can_register) refers to kservice.o(i.rt_memset) for rt_memset
    can.o(i.rt_hw_can_register) refers to timer.o(i.rt_timer_init) for rt_timer_init
    can.o(i.rt_hw_can_register) refers to device.o(i.rt_device_register) for rt_device_register
    can.o(i.rt_hw_can_register) refers to can.o(i.rt_can_init) for rt_can_init
    can.o(i.rt_hw_can_register) refers to can.o(i.rt_can_open) for rt_can_open
    can.o(i.rt_hw_can_register) refers to can.o(i.rt_can_close) for rt_can_close
    can.o(i.rt_hw_can_register) refers to can.o(i.rt_can_read) for rt_can_read
    can.o(i.rt_hw_can_register) refers to can.o(i.rt_can_write) for rt_can_write
    can.o(i.rt_hw_can_register) refers to can.o(i.rt_can_control) for rt_can_control
    can.o(i.rt_hw_can_register) refers to can.o(i.cantimeout) for cantimeout
    usartx.o(i.Check_Sum) refers to usartx.o(.bss) for .bss
    usartx.o(i.DATA_task) refers to thread.o(i.rt_thread_delay) for rt_thread_delay
    usartx.o(i.DATA_task) refers to usartx.o(i.Data_transition) for Data_transition
    usartx.o(i.DATA_task) refers to application.o(.data) for g_ucRos_Flag
    usartx.o(i.DATA_task) refers to application.o(.data) for g_eControl_Mode
    usartx.o(i.DATA_task) refers to robot_select_init.o(.data) for robot_control
    usartx.o(i.DATA_task) refers to usartx.o(.bss) for .bss
    usartx.o(i.DATA_task) refers to usartx.o(.data) for .data
    usartx.o(i.DMA1_Channel2_IRQHandler) refers to n32g45x_dma.o(i.DMA_GetIntStatus) for DMA_GetIntStatus
    usartx.o(i.DMA1_Channel2_IRQHandler) refers to n32g45x_dma.o(i.DMA_ClrIntPendingBit) for DMA_ClrIntPendingBit
    usartx.o(i.DMA1_Channel2_IRQHandler) refers to n32g45x_dma.o(i.DMA_EnableChannel) for DMA_EnableChannel
    usartx.o(i.DMA1_Channel2_IRQHandler) refers to usartx.o(.data) for .data
    usartx.o(i.DMA1_Channel2_nvic_config) refers to misc.o(i.NVIC_Init) for NVIC_Init
    usartx.o(i.DMA1_Channel4_IRQHandler) refers to n32g45x_dma.o(i.DMA_GetIntStatus) for DMA_GetIntStatus
    usartx.o(i.DMA1_Channel4_IRQHandler) refers to n32g45x_dma.o(i.DMA_ClrIntPendingBit) for DMA_ClrIntPendingBit
    usartx.o(i.DMA1_Channel4_IRQHandler) refers to n32g45x_dma.o(i.DMA_EnableChannel) for DMA_EnableChannel
    usartx.o(i.DMA1_Channel4_IRQHandler) refers to usartx.o(.data) for .data
    usartx.o(i.DMA1_Channel4_nvic_config) refers to misc.o(i.NVIC_Init) for NVIC_Init
    usartx.o(i.DMA2_Channel5_IRQHandler) refers to n32g45x_dma.o(i.DMA_GetIntStatus) for DMA_GetIntStatus
    usartx.o(i.DMA2_Channel5_IRQHandler) refers to n32g45x_dma.o(i.DMA_ClrIntPendingBit) for DMA_ClrIntPendingBit
    usartx.o(i.DMA2_Channel5_IRQHandler) refers to n32g45x_gpio.o(i.GPIO_ResetBits) for GPIO_ResetBits
    usartx.o(i.DMA2_Channel5_IRQHandler) refers to n32g45x_dma.o(i.DMA_EnableChannel) for DMA_EnableChannel
    usartx.o(i.DMA2_Channel5_IRQHandler) refers to n32g45x_dma.o(i.DMA_SetCurrDataCounter) for DMA_SetCurrDataCounter
    usartx.o(i.DMA2_Channel5_IRQHandler) refers to usartx.o(.data) for .data
    usartx.o(i.Data_transition) refers to sqrtf.o(i.sqrtf) for sqrtf
    usartx.o(i.Data_transition) refers to n32g45x_dma.o(i.DMA_EnableChannel) for DMA_EnableChannel
    usartx.o(i.Data_transition) refers to n32g45x_dma.o(i.DMA_SetCurrDataCounter) for DMA_SetCurrDataCounter
    usartx.o(i.Data_transition) refers to usartx.o(.bss) for .bss
    usartx.o(i.Data_transition) refers to application.o(.data) for g_emCarMode
    usartx.o(i.Data_transition) refers to application.o(.bss) for MOTOR_A
    usartx.o(i.Data_transition) refers to application.o(.bss) for MOTOR_B
    usartx.o(i.Data_transition) refers to application.o(.bss) for MOTOR_C
    usartx.o(i.Data_transition) refers to application.o(.data) for Wheel_spacing
    usartx.o(i.Data_transition) refers to application.o(.bss) for MOTOR_D
    usartx.o(i.Data_transition) refers to application.o(.data) for Axle_spacing
    usartx.o(i.Data_transition) refers to application.o(.data) for Omni_turn_radiaus
    usartx.o(i.Data_transition) refers to usartx.o(.data) for .data
    usartx.o(i.Data_transition) refers to balance.o(.data) for Move_X
    usartx.o(i.Data_transition) refers to rc_car.o(.data) for tire_speed
    usartx.o(i.Data_transition) refers to application.o(.data) for Flag_Stop
    usartx.o(i.GPIO_Configuration) refers to n32g45x_gpio.o(i.GPIO_InitPeripheral) for GPIO_InitPeripheral
    usartx.o(i.Modbus_task) refers to mb.o(i.eMBEnable) for eMBEnable
    usartx.o(i.Modbus_task) refers to thread.o(i.rt_thread_delay) for rt_thread_delay
    usartx.o(i.Modbus_task) refers to led.o(i.LedBlink) for LedBlink
    usartx.o(i.Modbus_task) refers to mb.o(i.eMBPoll) for eMBPoll
    usartx.o(i.Modbus_task) refers to n32g45x_dma.o(i.DMA_EnableChannel) for DMA_EnableChannel
    usartx.o(i.Modbus_task) refers to n32g45x_dma.o(i.DMA_SetCurrDataCounter) for DMA_SetCurrDataCounter
    usartx.o(i.Modbus_task) refers to flash_wr.o(i.MyFLASH_WriteWord) for MyFLASH_WriteWord
    usartx.o(i.Modbus_task) refers to mb.o(i.eMBInit) for eMBInit
    usartx.o(i.Modbus_task) refers to usartx.o(i.Pdu_Init) for Pdu_Init
    usartx.o(i.Modbus_task) refers to mb.o(i.Jump_To_BOOT) for Jump_To_BOOT
    usartx.o(i.Modbus_task) refers to application.o(i.Soft_Reset) for Soft_Reset
    usartx.o(i.Modbus_task) refers to mb.o(.data) for pxMBFrameCBByteReceived
    usartx.o(i.Modbus_task) refers to usartx.o(.data) for .data
    usartx.o(i.Modbus_task) refers to balance.o(.data) for error_code
    usartx.o(i.Modbus_Respond) refers to usartx.o(.data) for .data
    usartx.o(i.Pdu_Init) refers to usartx.o(.data) for .data
    usartx.o(i.Pdu_Init) refers to balance.o(.data) for FourWheer_Perimeter
    usartx.o(i.Pdu_Init) refers to application.o(.data) for g_eControl_Mode
    usartx.o(i.Pdu_Init) refers to application.o(.data) for Wheel_spacing
    usartx.o(i.Pdu_Init) refers to application.o(.data) for Axle_spacing
    usartx.o(i.Pdu_Init) refers to motor.o(.data) for Motor_Number
    usartx.o(i.RCC_Configuration) refers to n32g45x_rcc.o(i.RCC_EnableAPB2PeriphClk) for RCC_EnableAPB2PeriphClk
    usartx.o(i.RCC_Configuration) refers to n32g45x_rcc.o(i.RCC_EnableAHBPeriphClk) for RCC_EnableAHBPeriphClk
    usartx.o(i.SBUSDataRefresh) refers to rt_memcpy_v6.o(.text) for __aeabi_memcpy
    usartx.o(i.SBUSDataRefresh) refers to usartx.o(.bss) for .bss
    usartx.o(i.SBUSDataRefresh) refers to usartx.o(.data) for .data
    usartx.o(i.SetReal_Velocity) refers to usartx.o(i.Sbus_Data_Parsing) for Sbus_Data_Parsing
    usartx.o(i.SetReal_Velocity) refers to rt_memcpy_v6.o(.text) for __aeabi_memcpy
    usartx.o(i.SetReal_Velocity) refers to usartx.o(i.Set_Director) for Set_Director
    usartx.o(i.SetReal_Velocity) refers to usartx.o(.data) for .data
    usartx.o(i.SetReal_Velocity) refers to robot_select_init.o(.data) for robot_control
    usartx.o(i.SetReal_Velocity) refers to application.o(.data) for g_eControl_Mode
    usartx.o(i.SetReal_Velocity) refers to usartx.o(.bss) for .bss
    usartx.o(i.SetReal_Velocity) refers to application.o(.data) for rc_ptr
    usartx.o(i.SetReal_Velocity) refers to application.o(.data) for g_ucRemote_Flag
    usartx.o(i.SetReal_Velocity) refers to application.o(.data) for g_ucRos_Flag
    usartx.o(i.Set_Director) refers to usartx.o(i.Target_Direct_get) for Target_Direct_get
    usartx.o(i.Set_Director) refers to usartx.o(.bss) for .bss
    usartx.o(i.Set_Director) refers to application.o(.data) for rc_ptr
    usartx.o(i.Set_Director) refers to usartx.o(.data) for .data
    usartx.o(i.Target_Direct_get) refers to application.o(.data) for rc_ptr
    usartx.o(i.Target_Velocity_get) refers to application.o(.data) for rc_ptr
    usartx.o(i.UART4_IRQHandler) refers to n32g45x_usart.o(i.USART_GetIntStatus) for USART_GetIntStatus
    usartx.o(i.UART4_IRQHandler) refers to n32g45x_dma.o(i.DMA_GetCurrDataCounter) for DMA_GetCurrDataCounter
    usartx.o(i.UART4_IRQHandler) refers to n32g45x_dma.o(i.DMA_EnableChannel) for DMA_EnableChannel
    usartx.o(i.UART4_IRQHandler) refers to usartx.o(.data) for .data
    usartx.o(i.UART5_IRQHandler) refers to n32g45x_usart.o(i.USART_GetIntStatus) for USART_GetIntStatus
    usartx.o(i.UART5_IRQHandler) refers to n32g45x_usart.o(i.USART_ClrFlag) for USART_ClrFlag
    usartx.o(i.UART5_IRQHandler) refers to n32g45x_usart.o(i.USART_ReceiveData) for USART_ReceiveData
    usartx.o(i.UART5_IRQHandler) refers to n32g45x_dma.o(i.DMA_GetCurrDataCounter) for DMA_GetCurrDataCounter
    usartx.o(i.UART5_IRQHandler) refers to n32g45x_dma.o(i.DMA_EnableChannel) for DMA_EnableChannel
    usartx.o(i.UART5_IRQHandler) refers to n32g45x_dma.o(i.DMA_SetCurrDataCounter) for DMA_SetCurrDataCounter
    usartx.o(i.UART5_IRQHandler) refers to usartx.o(.data) for .data
    usartx.o(i.UART5_IRQHandler) refers to application.o(.data) for g_eControl_Mode
    usartx.o(i.USART1_IRQHandler) refers to n32g45x_usart.o(i.USART_GetIntStatus) for USART_GetIntStatus
    usartx.o(i.USART1_IRQHandler) refers to n32g45x_dma.o(i.DMA_EnableChannel) for DMA_EnableChannel
    usartx.o(i.USART1_IRQHandler) refers to n32g45x_dma.o(i.DMA_GetCurrDataCounter) for DMA_GetCurrDataCounter
    usartx.o(i.USART1_IRQHandler) refers to usartx.o(.data) for .data
    usartx.o(i.Usart1_Init) refers to n32g45x_rcc.o(i.RCC_EnableAPB2PeriphClk) for RCC_EnableAPB2PeriphClk
    usartx.o(i.Usart1_Init) refers to n32g45x_rcc.o(i.RCC_EnableAHBPeriphClk) for RCC_EnableAHBPeriphClk
    usartx.o(i.Usart1_Init) refers to n32g45x_gpio.o(i.GPIO_InitPeripheral) for GPIO_InitPeripheral
    usartx.o(i.Usart1_Init) refers to n32g45x_usart.o(i.USART_Init) for USART_Init
    usartx.o(i.Usart1_Init) refers to misc.o(i.NVIC_Init) for NVIC_Init
    usartx.o(i.Usart1_Init) refers to usartx.o(i.uart1_dma_config) for uart1_dma_config
    usartx.o(i.Usart1_Init) refers to n32g45x_usart.o(i.USART_ConfigInt) for USART_ConfigInt
    usartx.o(i.Usart1_Init) refers to n32g45x_usart.o(i.USART_Enable) for USART_Enable
    usartx.o(i.USART3_IRQHandler) refers to n32g45x_usart.o(i.USART_GetIntStatus) for USART_GetIntStatus
    usartx.o(i.USART3_IRQHandler) refers to n32g45x_dma.o(i.DMA_GetCurrDataCounter) for DMA_GetCurrDataCounter
    usartx.o(i.USART3_IRQHandler) refers to rt_memcpy_w.o(.text) for __aeabi_memcpy4
    usartx.o(i.USART3_IRQHandler) refers to n32g45x_dma.o(i.DMA_EnableChannel) for DMA_EnableChannel
    usartx.o(i.USART3_IRQHandler) refers to n32g45x_dma.o(i.DMA_SetCurrDataCounter) for DMA_SetCurrDataCounter
    usartx.o(i.USART3_IRQHandler) refers to usartx.o(.data) for .data
    usartx.o(i.USART3_IRQHandler) refers to usartx.o(.bss) for .bss
    usartx.o(i.Sbus_Data_Parsing) refers to usartx.o(.data) for .data
    usartx.o(i.Sbus_Data_Parsing) refers to usartx.o(.bss) for .bss
    usartx.o(i.Usart3_Init) refers to n32g45x_rcc.o(i.RCC_EnableAPB2PeriphClk) for RCC_EnableAPB2PeriphClk
    usartx.o(i.Usart3_Init) refers to n32g45x_rcc.o(i.RCC_EnableAPB1PeriphClk) for RCC_EnableAPB1PeriphClk
    usartx.o(i.Usart3_Init) refers to n32g45x_gpio.o(i.GPIO_InitPeripheral) for GPIO_InitPeripheral
    usartx.o(i.Usart3_Init) refers to n32g45x_usart.o(i.USART_Init) for USART_Init
    usartx.o(i.Usart3_Init) refers to misc.o(i.NVIC_Init) for NVIC_Init
    usartx.o(i.Usart3_Init) refers to usartx.o(i.uart3_dma_config) for uart3_dma_config
    usartx.o(i.Usart3_Init) refers to n32g45x_usart.o(i.USART_ConfigInt) for USART_ConfigInt
    usartx.o(i.Usart3_Init) refers to n32g45x_usart.o(i.USART_Enable) for USART_Enable
    usartx.o(i.Uart4_Init) refers to n32g45x_rcc.o(i.RCC_EnableAPB2PeriphClk) for RCC_EnableAPB2PeriphClk
    usartx.o(i.Uart4_Init) refers to n32g45x_gpio.o(i.GPIO_ConfigPinRemap) for GPIO_ConfigPinRemap
    usartx.o(i.Uart4_Init) refers to n32g45x_rcc.o(i.RCC_EnableAPB1PeriphClk) for RCC_EnableAPB1PeriphClk
    usartx.o(i.Uart4_Init) refers to n32g45x_rcc.o(i.RCC_EnableAHBPeriphClk) for RCC_EnableAHBPeriphClk
    usartx.o(i.Uart4_Init) refers to n32g45x_gpio.o(i.GPIO_InitPeripheral) for GPIO_InitPeripheral
    usartx.o(i.Uart4_Init) refers to n32g45x_usart.o(i.USART_Init) for USART_Init
    usartx.o(i.Uart4_Init) refers to misc.o(i.NVIC_Init) for NVIC_Init
    usartx.o(i.Uart4_Init) refers to usartx.o(i.Uart4_Dma_Config) for Uart4_Dma_Config
    usartx.o(i.Uart4_Init) refers to n32g45x_usart.o(i.USART_ConfigInt) for USART_ConfigInt
    usartx.o(i.Uart4_Init) refers to n32g45x_usart.o(i.USART_Enable) for USART_Enable
    usartx.o(i.Uart5_Init) refers to n32g45x_rcc.o(i.RCC_EnableAPB1PeriphClk) for RCC_EnableAPB1PeriphClk
    usartx.o(i.Uart5_Init) refers to n32g45x_rcc.o(i.RCC_EnableAPB2PeriphClk) for RCC_EnableAPB2PeriphClk
    usartx.o(i.Uart5_Init) refers to n32g45x_gpio.o(i.GPIO_InitPeripheral) for GPIO_InitPeripheral
    usartx.o(i.Uart5_Init) refers to n32g45x_gpio.o(i.GPIO_ConfigPinRemap) for GPIO_ConfigPinRemap
    usartx.o(i.Uart5_Init) refers to misc.o(i.NVIC_Init) for NVIC_Init
    usartx.o(i.Uart5_Init) refers to n32g45x_usart.o(i.USART_Init) for USART_Init
    usartx.o(i.Uart5_Init) refers to n32g45x_dma.o(i.DMA_DeInit) for DMA_DeInit
    usartx.o(i.Uart5_Init) refers to n32g45x_dma.o(i.DMA_StructInit) for DMA_StructInit
    usartx.o(i.Uart5_Init) refers to n32g45x_dma.o(i.DMA_Init) for DMA_Init
    usartx.o(i.Uart5_Init) refers to n32g45x_dma.o(i.DMA_RequestRemap) for DMA_RequestRemap
    usartx.o(i.Uart5_Init) refers to n32g45x_usart.o(i.USART_EnableDMA) for USART_EnableDMA
    usartx.o(i.Uart5_Init) refers to n32g45x_dma.o(i.DMA_EnableChannel) for DMA_EnableChannel
    usartx.o(i.Uart5_Init) refers to n32g45x_usart.o(i.USART_ConfigInt) for USART_ConfigInt
    usartx.o(i.Uart5_Init) refers to n32g45x_usart.o(i.USART_Enable) for USART_Enable
    usartx.o(i.Uart5_Init) refers to usartx.o(.bss) for .bss
    usartx.o(i.modbus_task_init) refers to mb.o(i.getPDUData) for getPDUData
    usartx.o(i.modbus_task_init) refers to mb.o(i.eMBInit) for eMBInit
    usartx.o(i.modbus_task_init) refers to flash_wr.o(i.MyFLASH_ReadByte) for MyFLASH_ReadByte
    usartx.o(i.modbus_task_init) refers to usartx.o(i.Pdu_Init) for Pdu_Init
    usartx.o(i.modbus_task_init) refers to flash_wr.o(i.MyFLASH_WriteWord) for MyFLASH_WriteWord
    usartx.o(i.modbus_task_init) refers to usartx.o(.data) for .data
    usartx.o(i.uart1_dma_config) refers to n32g45x_dma.o(i.DMA_DeInit) for DMA_DeInit
    usartx.o(i.uart1_dma_config) refers to n32g45x_dma.o(i.DMA_StructInit) for DMA_StructInit
    usartx.o(i.uart1_dma_config) refers to n32g45x_dma.o(i.DMA_Init) for DMA_Init
    usartx.o(i.uart1_dma_config) refers to n32g45x_dma.o(i.DMA_RequestRemap) for DMA_RequestRemap
    usartx.o(i.uart1_dma_config) refers to misc.o(i.NVIC_Init) for NVIC_Init
    usartx.o(i.uart1_dma_config) refers to n32g45x_dma.o(i.DMA_ConfigInt) for DMA_ConfigInt
    usartx.o(i.uart1_dma_config) refers to n32g45x_usart.o(i.USART_EnableDMA) for USART_EnableDMA
    usartx.o(i.uart1_dma_config) refers to n32g45x_dma.o(i.DMA_EnableChannel) for DMA_EnableChannel
    usartx.o(i.uart1_dma_config) refers to usartx.o(.bss) for .bss
    usartx.o(i.uart1_nvic_config) refers to misc.o(i.NVIC_Init) for NVIC_Init
    usartx.o(i.uart3_dma_config) refers to n32g45x_dma.o(i.DMA_DeInit) for DMA_DeInit
    usartx.o(i.uart3_dma_config) refers to n32g45x_dma.o(i.DMA_StructInit) for DMA_StructInit
    usartx.o(i.uart3_dma_config) refers to n32g45x_dma.o(i.DMA_Init) for DMA_Init
    usartx.o(i.uart3_dma_config) refers to n32g45x_dma.o(i.DMA_RequestRemap) for DMA_RequestRemap
    usartx.o(i.uart3_dma_config) refers to misc.o(i.NVIC_Init) for NVIC_Init
    usartx.o(i.uart3_dma_config) refers to n32g45x_dma.o(i.DMA_ConfigInt) for DMA_ConfigInt
    usartx.o(i.uart3_dma_config) refers to n32g45x_usart.o(i.USART_EnableDMA) for USART_EnableDMA
    usartx.o(i.uart3_dma_config) refers to n32g45x_dma.o(i.DMA_EnableChannel) for DMA_EnableChannel
    usartx.o(i.uart3_dma_config) refers to usartx.o(.bss) for .bss
    usartx.o(i.Uart4_Dma_Config) refers to n32g45x_dma.o(i.DMA_DeInit) for DMA_DeInit
    usartx.o(i.Uart4_Dma_Config) refers to n32g45x_dma.o(i.DMA_StructInit) for DMA_StructInit
    usartx.o(i.Uart4_Dma_Config) refers to n32g45x_dma.o(i.DMA_Init) for DMA_Init
    usartx.o(i.Uart4_Dma_Config) refers to n32g45x_dma.o(i.DMA_RequestRemap) for DMA_RequestRemap
    usartx.o(i.Uart4_Dma_Config) refers to misc.o(i.NVIC_Init) for NVIC_Init
    usartx.o(i.Uart4_Dma_Config) refers to n32g45x_dma.o(i.DMA_ConfigInt) for DMA_ConfigInt
    usartx.o(i.Uart4_Dma_Config) refers to n32g45x_usart.o(i.USART_EnableDMA) for USART_EnableDMA
    usartx.o(i.Uart4_Dma_Config) refers to n32g45x_dma.o(i.DMA_EnableChannel) for DMA_EnableChannel
    usartx.o(i.Uart4_Dma_Config) refers to usartx.o(.bss) for .bss
    usartx.o(i.Uart5_Dma_Config) refers to n32g45x_dma.o(i.DMA_DeInit) for DMA_DeInit
    usartx.o(i.Uart5_Dma_Config) refers to n32g45x_dma.o(i.DMA_StructInit) for DMA_StructInit
    usartx.o(i.Uart5_Dma_Config) refers to n32g45x_dma.o(i.DMA_Init) for DMA_Init
    usartx.o(i.Uart5_Dma_Config) refers to n32g45x_dma.o(i.DMA_RequestRemap) for DMA_RequestRemap
    usartx.o(i.Uart5_Dma_Config) refers to n32g45x_usart.o(i.USART_EnableDMA) for USART_EnableDMA
    usartx.o(i.Uart5_Dma_Config) refers to n32g45x_dma.o(i.DMA_EnableChannel) for DMA_EnableChannel
    usartx.o(i.Uart5_Dma_Config) refers to usartx.o(.bss) for .bss
    completion.o(i.rt_completion_done) refers to context_rvds.o(.text) for rt_hw_interrupt_disable
    completion.o(i.rt_completion_done) refers to thread.o(i.rt_thread_resume) for rt_thread_resume
    completion.o(i.rt_completion_done) refers to scheduler.o(i.rt_schedule) for rt_schedule
    completion.o(i.rt_completion_init) refers to context_rvds.o(.text) for rt_hw_interrupt_disable
    completion.o(i.rt_completion_wait) refers to thread.o(i.rt_thread_self) for rt_thread_self
    completion.o(i.rt_completion_wait) refers to context_rvds.o(.text) for rt_hw_interrupt_disable
    completion.o(i.rt_completion_wait) refers to thread.o(i.rt_thread_suspend) for rt_thread_suspend
    completion.o(i.rt_completion_wait) refers to timer.o(i.rt_timer_control) for rt_timer_control
    completion.o(i.rt_completion_wait) refers to timer.o(i.rt_timer_start) for rt_timer_start
    completion.o(i.rt_completion_wait) refers to scheduler.o(i.rt_schedule) for rt_schedule
    user_adc.o(i.ADC_GPIO_Configuration) refers to n32g45x_rcc.o(i.RCC_EnableAPB2PeriphClk) for RCC_EnableAPB2PeriphClk
    user_adc.o(i.ADC_GPIO_Configuration) refers to n32g45x_gpio.o(i.GPIO_InitPeripheral) for GPIO_InitPeripheral
    user_adc.o(i.ADC_GPIO_Configuration) refers to user_adc.o(.constdata) for .constdata
    user_adc.o(i.ADC_GetData) refers to n32g45x_adc.o(i.ADC_GetFlagStatus) for ADC_GetFlagStatus
    user_adc.o(i.ADC_GetData) refers to n32g45x_adc.o(i.ADC_ClearFlag) for ADC_ClearFlag
    user_adc.o(i.ADC_GetData) refers to n32g45x_adc.o(i.ADC_GetDat) for ADC_GetDat
    user_adc.o(i.ADC_GetData) refers to n32g45x_adc.o(i.ADC_ConfigRegularChannel) for ADC_ConfigRegularChannel
    user_adc.o(i.ADC_GetData) refers to n32g45x_adc.o(i.ADC_EnableSoftwareStartConv) for ADC_EnableSoftwareStartConv
    user_adc.o(i.ADC_Initial) refers to n32g45x_adc.o(i.ADC_Init) for ADC_Init
    user_adc.o(i.ADC_Initial) refers to n32g45x_adc.o(i.ADC_Enable) for ADC_Enable
    user_adc.o(i.ADC_Initial) refers to n32g45x_adc.o(i.ADC_GetFlagStatusNew) for ADC_GetFlagStatusNew
    user_adc.o(i.ADC_Initial) refers to n32g45x_adc.o(i.ADC_StartCalibration) for ADC_StartCalibration
    user_adc.o(i.ADC_Initial) refers to n32g45x_adc.o(i.ADC_GetCalibrationStatus) for ADC_GetCalibrationStatus
    user_adc.o(i.ADC_task) refers to thread.o(i.rt_thread_delay) for rt_thread_delay
    user_adc.o(i.ADC_task) refers to user_adc.o(i.ADC_GetData) for ADC_GetData
    user_adc.o(i.Adc_Init) refers to n32g45x_rcc.o(i.RCC_EnableAHBPeriphClk) for RCC_EnableAHBPeriphClk
    user_adc.o(i.Adc_Init) refers to n32g45x_adc.o(i.ADC_ConfigClk) for ADC_ConfigClk
    user_adc.o(i.Adc_Init) refers to n32g45x_rcc.o(i.RCC_ConfigAdc1mClk) for RCC_ConfigAdc1mClk
    user_adc.o(i.Adc_Init) refers to n32g45x_rcc.o(i.RCC_EnableAPB2PeriphClk) for RCC_EnableAPB2PeriphClk
    user_adc.o(i.Adc_Init) refers to n32g45x_gpio.o(i.GPIO_InitPeripheral) for GPIO_InitPeripheral
    user_adc.o(i.Adc_Init) refers to user_adc.o(i.ADC_Initial) for ADC_Initial
    user_adc.o(i.Adc_Init) refers to user_adc.o(.constdata) for .constdata
    mb.o(i.FillBuf) refers to rt_memclr.o(.text) for __aeabi_memclr
    mb.o(i.Jump_To_BOOT) refers to n32g45x_iwdg.o(i.IWDG_ReloadKey) for IWDG_ReloadKey
    mb.o(i.Jump_To_BOOT) refers to n32g45x_iwdg.o(i.IWDG_WriteConfig) for IWDG_WriteConfig
    mb.o(i.Jump_To_BOOT) refers to n32g45x_iwdg.o(i.IWDG_SetPrescalerDiv) for IWDG_SetPrescalerDiv
    mb.o(i.Jump_To_BOOT) refers to n32g45x_rcc.o(i.RCC_DeInit) for RCC_DeInit
    mb.o(i.Jump_To_BOOT) refers to n32g45x_rcc.o(i.RCC_EnableHsi) for RCC_EnableHsi
    mb.o(i.Jump_To_BOOT) refers to n32g45x_rcc.o(i.RCC_GetFlagStatus) for RCC_GetFlagStatus
    mb.o(i.Jump_To_BOOT) refers to n32g45x_rcc.o(i.RCC_EnableAPB1PeriphClk) for RCC_EnableAPB1PeriphClk
    mb.o(i.Jump_To_BOOT) refers to n32g45x_flash.o(i.FLASH_SetLatency) for FLASH_SetLatency
    mb.o(i.Jump_To_BOOT) refers to n32g45x_flash.o(i.FLASH_PrefetchBufSet) for FLASH_PrefetchBufSet
    mb.o(i.Jump_To_BOOT) refers to n32g45x_flash.o(i.FLASH_iCacheCmd) for FLASH_iCacheCmd
    mb.o(i.Jump_To_BOOT) refers to n32g45x_rcc.o(i.RCC_ConfigHclk) for RCC_ConfigHclk
    mb.o(i.Jump_To_BOOT) refers to n32g45x_rcc.o(i.RCC_ConfigPclk2) for RCC_ConfigPclk2
    mb.o(i.Jump_To_BOOT) refers to n32g45x_rcc.o(i.RCC_ConfigPclk1) for RCC_ConfigPclk1
    mb.o(i.Jump_To_BOOT) refers to n32g45x_rcc.o(i.RCC_ConfigPll) for RCC_ConfigPll
    mb.o(i.Jump_To_BOOT) refers to n32g45x_rcc.o(i.RCC_EnablePll) for RCC_EnablePll
    mb.o(i.Jump_To_BOOT) refers to n32g45x_rcc.o(i.RCC_ConfigSysclk) for RCC_ConfigSysclk
    mb.o(i.Jump_To_BOOT) refers to n32g45x_rcc.o(i.RCC_GetSysclkSrc) for RCC_GetSysclkSrc
    mb.o(i.Jump_To_BOOT) refers to n32g45x_usart.o(i.USART_DeInit) for USART_DeInit
    mb.o(i.Jump_To_BOOT) refers to n32g45x_gpio.o(i.GPIO_DeInit) for GPIO_DeInit
    mb.o(i.Jump_To_BOOT) refers to n32g45x_rcc.o(i.RCC_EnableAPB1PeriphReset) for RCC_EnableAPB1PeriphReset
    mb.o(i.Jump_To_BOOT) refers to rt_memclr_w.o(.text) for __aeabi_memclr4
    mb.o(i.MB_Analyze_Execute) refers to mb.o(.bss) for .bss
    mb.o(i.MB_Exception_RSP) refers to mbcrc.o(i.usMBCRC16) for usMBCRC16
    mb.o(i.MB_Exception_RSP) refers to usartx.o(.data) for usart1_send_len
    mb.o(i.MB_Exception_RSP) refers to mb.o(.data) for .data
    mb.o(i.MB_Exception_RSP) refers to usartx.o(.bss) for usart1_send_data
    mb.o(i.MB_RSP) refers to mbcrc.o(i.usMBCRC16) for usMBCRC16
    mb.o(i.MB_RSP) refers to usartx.o(.data) for usart1_send_len
    mb.o(i.MB_RSP) refers to mb.o(.data) for .data
    mb.o(i.MB_RSP) refers to usartx.o(.bss) for usart1_send_data
    mb.o(i.MB_RSP) refers to mb.o(.bss) for .bss
    mb.o(i.SetSysClock_HSI_PLL) refers to n32g45x_rcc.o(i.RCC_DeInit) for RCC_DeInit
    mb.o(i.SetSysClock_HSI_PLL) refers to n32g45x_rcc.o(i.RCC_EnableHsi) for RCC_EnableHsi
    mb.o(i.SetSysClock_HSI_PLL) refers to n32g45x_rcc.o(i.RCC_GetFlagStatus) for RCC_GetFlagStatus
    mb.o(i.SetSysClock_HSI_PLL) refers to n32g45x_rcc.o(i.RCC_EnableAPB1PeriphClk) for RCC_EnableAPB1PeriphClk
    mb.o(i.SetSysClock_HSI_PLL) refers to n32g45x_flash.o(i.FLASH_SetLatency) for FLASH_SetLatency
    mb.o(i.SetSysClock_HSI_PLL) refers to n32g45x_flash.o(i.FLASH_PrefetchBufSet) for FLASH_PrefetchBufSet
    mb.o(i.SetSysClock_HSI_PLL) refers to n32g45x_flash.o(i.FLASH_iCacheCmd) for FLASH_iCacheCmd
    mb.o(i.SetSysClock_HSI_PLL) refers to n32g45x_rcc.o(i.RCC_ConfigHclk) for RCC_ConfigHclk
    mb.o(i.SetSysClock_HSI_PLL) refers to n32g45x_rcc.o(i.RCC_ConfigPclk2) for RCC_ConfigPclk2
    mb.o(i.SetSysClock_HSI_PLL) refers to n32g45x_rcc.o(i.RCC_ConfigPclk1) for RCC_ConfigPclk1
    mb.o(i.SetSysClock_HSI_PLL) refers to n32g45x_rcc.o(i.RCC_ConfigPll) for RCC_ConfigPll
    mb.o(i.SetSysClock_HSI_PLL) refers to n32g45x_rcc.o(i.RCC_EnablePll) for RCC_EnablePll
    mb.o(i.SetSysClock_HSI_PLL) refers to n32g45x_rcc.o(i.RCC_ConfigSysclk) for RCC_ConfigSysclk
    mb.o(i.SetSysClock_HSI_PLL) refers to n32g45x_rcc.o(i.RCC_GetSysclkSrc) for RCC_GetSysclkSrc
    mb.o(i.eMBClose) refers to mb.o(.data) for .data
    mb.o(i.eMBDisable) refers to mb.o(.data) for .data
    mb.o(i.eMBEnable) refers to mb.o(.data) for .data
    mb.o(i.eMBInit) refers to rt_memclr.o(.text) for __aeabi_memclr
    mb.o(i.eMBInit) refers to portevent.o(i.xMBPortEventInit) for xMBPortEventInit
    mb.o(i.eMBInit) refers to mb.o(.bss) for .bss
    mb.o(i.eMBInit) refers to mb.o(.data) for .data
    mb.o(i.eMBInit) refers to mbrtu.o(i.eMBRTUStart) for eMBRTUStart
    mb.o(i.eMBInit) refers to mbrtu.o(i.eMBRTUStop) for eMBRTUStop
    mb.o(i.eMBInit) refers to mbrtu.o(i.eMBRTUReceive) for eMBRTUReceive
    mb.o(i.eMBInit) refers to mbrtu.o(i.xMBRTUReceiveFSM) for xMBRTUReceiveFSM
    mb.o(i.eMBInit) refers to mbrtu.o(i.xMBRTUTransmitFSM) for xMBRTUTransmitFSM
    mb.o(i.eMBInit) refers to mbrtu.o(i.xMBRTUTimerT35Expired) for xMBRTUTimerT35Expired
    mb.o(i.eMBPoll) refers to portevent.o(i.xMBPortEventGet) for xMBPortEventGet
    mb.o(i.eMBPoll) refers to n32g45x_dma.o(i.DMA_EnableChannel) for DMA_EnableChannel
    mb.o(i.eMBPoll) refers to n32g45x_dma.o(i.DMA_SetCurrDataCounter) for DMA_SetCurrDataCounter
    mb.o(i.eMBPoll) refers to mb.o(i.MB_Analyze_Execute) for MB_Analyze_Execute
    mb.o(i.eMBPoll) refers to mbcrc.o(i.usMBCRC16) for usMBCRC16
    mb.o(i.eMBPoll) refers to mb.o(i.MB_RSP) for MB_RSP
    mb.o(i.eMBPoll) refers to mb.o(.data) for .data
    mb.o(i.eMBPoll) refers to mb.o(.bss) for .bss
    mb.o(i.eMBPoll) refers to usartx.o(.data) for usart1_send_len
    mb.o(i.eMBPoll) refers to usartx.o(.bss) for usart1_send_data
    mb.o(i.eMBRegisterCB) refers to mb.o(.data) for .data
    mb.o(i.getPDUData) refers to mb.o(.bss) for .bss
    mb.o(.data) refers to mbfuncother.o(i.eMBFuncReportSlaveID) for eMBFuncReportSlaveID
    mb.o(.data) refers to mbfuncinput.o(i.eMBFuncReadInputRegister) for eMBFuncReadInputRegister
    mb.o(.data) refers to mbfuncholding.o(i.eMBFuncReadHoldingRegister) for eMBFuncReadHoldingRegister
    mb.o(.data) refers to mbfuncholding.o(i.eMBFuncWriteMultipleHoldingRegister) for eMBFuncWriteMultipleHoldingRegister
    mb.o(.data) refers to mbfuncholding.o(i.eMBFuncWriteHoldingRegister) for eMBFuncWriteHoldingRegister
    mb.o(.data) refers to mbfuncholding.o(i.eMBFuncReadWriteMultipleHoldingRegister) for eMBFuncReadWriteMultipleHoldingRegister
    mb.o(.data) refers to mbfunccoils.o(i.eMBFuncReadCoils) for eMBFuncReadCoils
    mb.o(.data) refers to mbfunccoils.o(i.eMBFuncWriteCoil) for eMBFuncWriteCoil
    mb.o(.data) refers to mbfunccoils.o(i.eMBFuncWriteMultipleCoils) for eMBFuncWriteMultipleCoils
    mb.o(.data) refers to mbfuncdisc.o(i.eMBFuncReadDiscreteInputs) for eMBFuncReadDiscreteInputs
    portevent.o(i.xMBPortEventGet) refers to portevent.o(.data) for .data
    portevent.o(i.xMBPortEventInit) refers to portevent.o(.data) for .data
    portevent.o(i.xMBPortEventPost) refers to portevent.o(.data) for .data
    mbcrc.o(i.usMBCRC16) refers to mbcrc.o(.constdata) for .constdata
    mbrtu.o(i.eMBRTUReceive) refers to mbcrc.o(i.usMBCRC16) for usMBCRC16
    mbrtu.o(i.eMBRTUReceive) refers to mbrtu.o(.data) for .data
    mbrtu.o(i.eMBRTUReceive) refers to usartx.o(.data) for usart1_recv_len
    mbrtu.o(i.eMBRTUStart) refers to mbrtu.o(.data) for .data
    mbrtu.o(i.eMBRTUStop) refers to portserial.o(i.vMBPortSerialEnable) for vMBPortSerialEnable
    mbrtu.o(i.xMBRTUReceiveFSM) refers to portevent.o(i.xMBPortEventPost) for xMBPortEventPost
    mbrtu.o(i.xMBRTUReceiveFSM) refers to mbrtu.o(.data) for .data
    mbrtu.o(i.xMBRTUReceiveFSM) refers to usartx.o(.bss) for usart1_recv_data
    mbrtu.o(i.xMBRTUTimerT35Expired) refers to portevent.o(i.xMBPortEventPost) for xMBPortEventPost
    mbrtu.o(i.xMBRTUTimerT35Expired) refers to mbrtu.o(.data) for .data
    mbrtu.o(i.xMBRTUTransmitFSM) refers to portserial.o(i.vMBPortSerialEnable) for vMBPortSerialEnable
    mbrtu.o(i.xMBRTUTransmitFSM) refers to portserial.o(i.xMBPortSerialPutByte) for xMBPortSerialPutByte
    mbrtu.o(i.xMBRTUTransmitFSM) refers to portevent.o(i.xMBPortEventPost) for xMBPortEventPost
    mbrtu.o(i.xMBRTUTransmitFSM) refers to mbrtu.o(.data) for .data
    mbfunccoils.o(i.eMBFuncReadCoils) refers to mbutils.o(i.prveMBError2Exception) for prveMBError2Exception
    mbfunccoils.o(i.eMBFuncWriteCoil) refers to mbutils.o(i.prveMBError2Exception) for prveMBError2Exception
    mbfunccoils.o(i.eMBFuncWriteMultipleCoils) refers to mbutils.o(i.prveMBError2Exception) for prveMBError2Exception
    mbfuncdisc.o(i.eMBFuncReadDiscreteInputs) refers to mbutils.o(i.prveMBError2Exception) for prveMBError2Exception
    mbfuncholding.o(i.eMBFuncReadHoldingRegister) refers to mbutils.o(i.prveMBError2Exception) for prveMBError2Exception
    mbfuncholding.o(i.eMBFuncReadWriteMultipleHoldingRegister) refers to mbutils.o(i.prveMBError2Exception) for prveMBError2Exception
    mbfuncholding.o(i.eMBFuncWriteHoldingRegister) refers to mbutils.o(i.prveMBError2Exception) for prveMBError2Exception
    mbfuncholding.o(i.eMBFuncWriteMultipleHoldingRegister) refers to mbutils.o(i.prveMBError2Exception) for prveMBError2Exception
    mbfuncinput.o(i.eMBFuncReadInputRegister) refers to mbutils.o(i.prveMBError2Exception) for prveMBError2Exception
    mbfuncother.o(i.eMBFuncReportSlaveID) refers to rt_memcpy_v6.o(.text) for __aeabi_memcpy
    mbfuncother.o(i.eMBFuncReportSlaveID) refers to mbfuncother.o(.data) for .data
    mbfuncother.o(i.eMBFuncReportSlaveID) refers to mbfuncother.o(.bss) for .bss
    mbfuncother.o(i.eMBSetSlaveID) refers to rt_memcpy_v6.o(.text) for __aeabi_memcpy
    mbfuncother.o(i.eMBSetSlaveID) refers to mbfuncother.o(.data) for .data
    mbfuncother.o(i.eMBSetSlaveID) refers to mbfuncother.o(.bss) for .bss
    motor.o(i.MotorDataRefresh) refers to motor.o(.data) for .data
    motor.o(i.MotorDataRefresh) refers to motor.o(.bss) for .bss
    motor.o(i.Motor) refers to motor.o(.data) for .data
    motor.o(i.Motor) refers to motor.o(.bss) for .bss
    motor.o(i.Motor_init_process) refers to user_can.o(i.IsSdoEmpty) for IsSdoEmpty
    motor.o(i.Motor_init_process) refers to user_can.o(i.NMT_Control) for NMT_Control
    motor.o(i.Motor_init_process) refers to user_can.o(i.ZLAC8015_PDO_Config) for ZLAC8015_PDO_Config
    motor.o(i.Motor_init_process) refers to user_can.o(i.WANZER_PDO_Config) for WANZER_PDO_Config
    motor.o(i.Motor_init_process) refers to user_can.o(i.ZLAC8015D_PDO_Config) for ZLAC8015D_PDO_Config
    motor.o(i.Motor_init_process) refers to user_can.o(i.PLAN_PDO_Config) for PLAN_PDO_Config
    motor.o(i.Motor_init_process) refers to motor.o(.data) for .data
    motor.o(i.Motor_init_process) refers to motor.o(.bss) for .bss
    motor.o(i.Motor_task) refers to motor.o(i.Motor) for Motor
    motor.o(i.Motor_task) refers to thread.o(i.rt_thread_delay) for rt_thread_delay
    motor.o(i.Motor_task) refers to user_can.o(i.IsSdoEmpty) for IsSdoEmpty
    motor.o(i.Motor_task) refers to user_can.o(i.NMT_Control) for NMT_Control
    motor.o(i.Motor_task) refers to user_can.o(i.ZLAC8015_PDO_Config) for ZLAC8015_PDO_Config
    motor.o(i.Motor_task) refers to user_can.o(i.WANZER_PDO_Config) for WANZER_PDO_Config
    motor.o(i.Motor_task) refers to user_can.o(i.ZLAC8015D_PDO_Config) for ZLAC8015D_PDO_Config
    motor.o(i.Motor_task) refers to user_can.o(i.PLAN_PDO_Config) for PLAN_PDO_Config
    motor.o(i.Motor_task) refers to motor.o(.data) for .data
    motor.o(i.Motor_task) refers to motor.o(.bss) for .bss
    motor.o(i.Motor_task) refers to thread.o(i.rt_thread_delay) for rt_thread_delay
    motor.o(i.Motor_task) refers to motor.o(.data) for .data
    motor.o(i.Motor_task) refers to motor.o(.bss) for .bss
    motor.o(i.Motor_task) refers to robot_select_init.o(.data) for robot_control
    motor.o(i.New_Servo_Motor_Init) refers to user_can.o(i.ZLAC8015_PDO_Config) for ZLAC8015_PDO_Config
    motor.o(i.New_Servo_Motor_Init) refers to user_can.o(i.NMT_Control) for NMT_Control
    motor.o(i.New_Servo_Motor_Init) refers to user_can.o(i.WANZER_PDO_Config) for WANZER_PDO_Config
    motor.o(i.New_Servo_Motor_Init) refers to user_can.o(i.ZLAC8015D_PDO_Config) for ZLAC8015D_PDO_Config
    motor.o(i.New_Servo_Motor_Init) refers to user_can.o(i.PLAN_PDO_Config) for PLAN_PDO_Config
    motor.o(i.New_Servo_Motor_Init) refers to motor.o(.data) for .data
    balance.o(i.Balance_task) refers to d2f.o(x$fpl$d2f) for __aeabi_d2f
    balance.o(i.Balance_task) refers to balance.o(i.BatteryInfoInit) for BatteryInfoInit
    balance.o(i.Balance_task) refers to charger.o(i.LimitSwitch_Init) for LimitSwitch_Init
    balance.o(i.Balance_task) refers to charger.o(i.Relay_Init) for Relay_Init
    balance.o(i.Balance_task) refers to charger.o(i.Key_Init) for Key_Init
    balance.o(i.Balance_task) refers to charger.o(i.RGB_Init) for RGB_Init
    balance.o(i.Balance_task) refers to charger.o(i.ChargeDetection_Init) for ChargeDetection_Init
    balance.o(i.Balance_task) refers to thread.o(i.rt_thread_delay) for rt_thread_delay
    balance.o(i.Balance_task) refers to led.o(i.LedBlink) for LedBlink
    balance.o(i.Balance_task) refers to balance.o(i.Get_Motor_Velocity) for Get_Motor_Velocity
    balance.o(i.Balance_task) refers to usartx.o(i.SetReal_Velocity) for SetReal_Velocity
    balance.o(i.Balance_task) refers to balance.o(i.Drive_Motor) for Drive_Motor
    balance.o(i.Balance_task) refers to balance.o(i.Car_Light_Control) for Car_Light_Control
    balance.o(i.Balance_task) refers to dflt_clz.o(x$fpl$dflt) for __aeabi_i2d
    balance.o(i.Balance_task) refers to f2d.o(x$fpl$f2d) for __aeabi_f2d
    balance.o(i.Balance_task) refers to dmul.o(x$fpl$dmul) for __aeabi_dmul
    balance.o(i.Balance_task) refers to daddsub_clz.o(x$fpl$dadd) for __aeabi_dadd
    balance.o(i.Balance_task) refers to dfixu.o(x$fpl$dfixu) for __aeabi_d2uiz
    balance.o(i.Balance_task) refers to rc_car.o(i.RCCAR_Process) for RCCAR_Process
    balance.o(i.Balance_task) refers to n32g45x_gpio.o(i.GPIO_ReadInputDataBit) for GPIO_ReadInputDataBit
    balance.o(i.Balance_task) refers to balance.o(.data) for .data
    balance.o(i.Balance_task) refers to application.o(.data) for g_eControl_Mode
    balance.o(i.Balance_task) refers to application.o(.data) for Wheel_spacing
    balance.o(i.Balance_task) refers to application.o(.data) for Axle_spacing
    balance.o(i.Balance_task) refers to motor.o(.data) for Motor_Number
    balance.o(i.Balance_task) refers to motor.o(.bss) for mrd
    balance.o(i.Balance_task) refers to application.o(.data) for g_emCarMode
    balance.o(i.Balance_task) refers to usartx.o(.data) for g_nVelocity
    balance.o(i.Balance_task) refers to application.o(.bss) for MOTOR_A
    balance.o(i.Balance_task) refers to application.o(.bss) for MOTOR_B
    balance.o(i.Balance_task) refers to application.o(.bss) for MOTOR_C
    balance.o(i.Balance_task) refers to application.o(.bss) for MOTOR_D
    balance.o(i.Balance_task) refers to charger.o(i.IrDA_ReceiveData) for IrDA_ReceiveData
    balance.o(i.Balance_task) refers to balance.o(i.IrDA_SendData) for IrDA_SendData
    balance.o(i.Balance_task) refers to charger.o(i.RGB_ShowCharging) for RGB_ShowCharging
    balance.o(i.Balance_task) refers to charger.o(i.RGB_ShowCharged) for RGB_ShowCharged
    balance.o(i.Balance_task) refers to charger.o(i.RGB_ShowError) for RGB_ShowError
    balance.o(i.Balance_task) refers to n32g45x_gpio.o(i.GPIO_SetBits) for GPIO_SetBits
    balance.o(i.Balance_task) refers to charger.o(i.Key_Change_RGB) for Key_Change_RGB
    balance.o(i.Balance_task) refers to n32g45x_gpio.o(i.GPIO_ReadOutputDataBit) for GPIO_ReadOutputDataBit
    balance.o(i.Balance_task) refers to n32g45x_gpio.o(i.GPIO_ResetBits) for GPIO_ResetBits
    balance.o(i.Balance_task) refers to balance.o(i.BatteryInformation) for BatteryInformation
    balance.o(i.Balance_task) refers to n32g45x_gpio.o(i.GPIO_WriteBit) for GPIO_WriteBit
    balance.o(i.Balance_task) refers to robot_select_init.o(.data) for robot_control
    balance.o(i.BatteryInfoInit) refers to balance.o(.data) for .data
    balance.o(i.BatteryInfoInit) refers to usartx.o(.bss) for uart4_send_data
    balance.o(i.BatteryInfoInit) refers to usartx.o(.data) for uart4_send_flag
    balance.o(i.BatteryInformation) refers to dflt_clz.o(x$fpl$dflt) for __aeabi_i2d
    balance.o(i.BatteryInformation) refers to dmul.o(x$fpl$dmul) for __aeabi_dmul
    balance.o(i.BatteryInformation) refers to d2f.o(x$fpl$d2f) for __aeabi_d2f
    balance.o(i.BatteryInformation) refers to f2d.o(x$fpl$f2d) for __aeabi_f2d
    balance.o(i.BatteryInformation) refers to ddiv.o(x$fpl$ddiv) for __aeabi_ddiv
    balance.o(i.BatteryInformation) refers to drleqf.o(x$fpl$drleqf) for __aeabi_cdrcmple
    balance.o(i.BatteryInformation) refers to dflt_clz.o(x$fpl$dfltu) for __aeabi_ui2d
    balance.o(i.BatteryInformation) refers to dfixu.o(x$fpl$dfixu) for __aeabi_d2uiz
    balance.o(i.BatteryInformation) refers to dfix.o(x$fpl$dfix) for __aeabi_d2iz
    balance.o(i.BatteryInformation) refers to n32g45x_gpio.o(i.GPIO_SetBits) for GPIO_SetBits
    balance.o(i.BatteryInformation) refers to n32g45x_dma.o(i.DMA_EnableChannel) for DMA_EnableChannel
    balance.o(i.BatteryInformation) refers to n32g45x_dma.o(i.DMA_SetCurrDataCounter) for DMA_SetCurrDataCounter
    balance.o(i.BatteryInformation) refers to usartx.o(.data) for uart4_recv_flag
    balance.o(i.BatteryInformation) refers to balance.o(.data) for .data
    balance.o(i.BatteryInformation) refers to usartx.o(.bss) for uart4_recv_data
    balance.o(i.BatteryThresholdAlarm) refers to balance.o(.data) for .data
    balance.o(i.Car_Light_Control) refers to usartx.o(i.Abs_int) for Abs_int
    balance.o(i.Car_Light_Control) refers to n32g45x_gpio.o(i.GPIO_ResetBits) for GPIO_ResetBits
    balance.o(i.Car_Light_Control) refers to n32g45x_gpio.o(i.GPIO_SetBits) for GPIO_SetBits
    balance.o(i.Car_Light_Control) refers to usartx.o(.bss) for tagSBUS_CH
    balance.o(i.Car_Light_Control) refers to application.o(.data) for rc_ptr
    balance.o(i.Car_Light_Control) refers to usartx.o(.data) for g_ucLightOnFlag
    balance.o(i.Car_Light_Control) refers to balance.o(.data) for .data
    balance.o(i.Car_Light_Control) refers to application.o(.data) for g_eControl_Mode
    balance.o(i.Car_Light_Control) refers to balance.o(.bss) for .bss
    balance.o(i.Drive_Motor) refers to balance.o(.data) for .data
    balance.o(i.Drive_Motor) refers to application.o(.data) for g_emCarMode
    balance.o(i.Drive_Motor) refers to application.o(.data) for Wheel_spacing
    balance.o(i.Drive_Motor) refers to application.o(.data) for Axle_spacing
    balance.o(i.Drive_Motor) refers to application.o(.bss) for MOTOR_A
    balance.o(i.Drive_Motor) refers to application.o(.bss) for MOTOR_B
    balance.o(i.Drive_Motor) refers to application.o(.bss) for MOTOR_C
    balance.o(i.Drive_Motor) refers to application.o(.bss) for MOTOR_D
    balance.o(i.Get_Motor_Velocity) refers to balance.o(.data) for .data
    balance.o(i.Get_Motor_Velocity) refers to motor.o(.bss) for mtd
    balance.o(i.Get_Motor_Velocity) refers to application.o(.bss) for MOTOR_A
    balance.o(i.Get_Motor_Velocity) refers to application.o(.bss) for MOTOR_B
    balance.o(i.Get_Motor_Velocity) refers to application.o(.bss) for MOTOR_C
    balance.o(i.Get_Motor_Velocity) refers to application.o(.bss) for MOTOR_D
    balance.o(i.IrDA_Guide) refers to balance.o(.data) for .data
    balance.o(i.IrDA_RX_Decode) refers to charger.o(i.IrDA_ReceiveData) for IrDA_ReceiveData
    balance.o(i.IrDA_RX_Decode) refers to balance.o(i.IrDA_SendData) for IrDA_SendData
    balance.o(i.IrDA_RX_Decode) refers to charger.o(i.RGB_ShowCharging) for RGB_ShowCharging
    balance.o(i.IrDA_RX_Decode) refers to charger.o(i.RGB_ShowCharged) for RGB_ShowCharged
    balance.o(i.IrDA_RX_Decode) refers to charger.o(i.RGB_ShowError) for RGB_ShowError
    balance.o(i.IrDA_RX_Decode) refers to n32g45x_gpio.o(i.GPIO_ReadInputDataBit) for GPIO_ReadInputDataBit
    balance.o(i.IrDA_RX_Decode) refers to n32g45x_gpio.o(i.GPIO_SetBits) for GPIO_SetBits
    balance.o(i.IrDA_RX_Decode) refers to n32g45x_gpio.o(i.GPIO_ResetBits) for GPIO_ResetBits
    balance.o(i.IrDA_RX_Decode) refers to balance.o(.data) for .data
    balance.o(i.IrDA_Send0) refers to balance.o(.data) for .data
    balance.o(i.IrDA_Send1) refers to balance.o(.data) for .data
    balance.o(i.IrDA_SendData) refers to balance.o(.data) for .data
    balance.o(i.IrDA_TX_Control) refers to n32g45x_gpio.o(i.GPIO_ReadInputDataBit) for GPIO_ReadInputDataBit
    balance.o(i.IrDA_TX_Control) refers to balance.o(.data) for .data
    balance.o(i.PowerControl) refers to n32g45x_gpio.o(i.GPIO_ResetBits) for GPIO_ResetBits
    balance.o(i.PowerControl) refers to n32g45x_gpio.o(i.GPIO_SetBits) for GPIO_SetBits
    balance.o(i.PowerControl) refers to balance.o(.data) for .data
    balance.o(i.Relay_Switch) refers to n32g45x_gpio.o(i.GPIO_ReadOutputDataBit) for GPIO_ReadOutputDataBit
    balance.o(i.Relay_Switch) refers to n32g45x_gpio.o(i.GPIO_ReadInputDataBit) for GPIO_ReadInputDataBit
    balance.o(i.Relay_Switch) refers to n32g45x_gpio.o(i.GPIO_ResetBits) for GPIO_ResetBits
    balance.o(i.Relay_Switch) refers to n32g45x_gpio.o(i.GPIO_SetBits) for GPIO_SetBits
    balance.o(i.Relay_Switch) refers to balance.o(.data) for .data
    balance.o(i.Remote_Control) refers to usartx.o(.data) for g_nVelocity
    balance.o(i.Remote_Control) refers to balance.o(.data) for .data
    balance.o(i.Ros_Control) refers to usartx.o(.data) for g_fltRecv_Vel_X
    balance.o(i.Ros_Control) refers to balance.o(.data) for .data
    balance.o(i.RotateToSpeedVelocity) refers to balance.o(.data) for .data
    balance.o(i.SPI1_ReadWriteByte) refers to n32g45x_gpio.o(i.GPIO_WriteBit) for GPIO_WriteBit
    balance.o(i.SPI1_ReadWriteByte) refers to balance.o(.data) for .data
    balance.o(i.SPI1_ReadWriteByte) refers to robot_select_init.o(.data) for robot_control
    balance.o(i.Set_MotorVelocity) refers to motor.o(.bss) for mrd
    balance.o(i.Set_MotorVelocity) refers to balance.o(.data) for .data
    balance.o(i.Smooth_control) refers to f2d.o(x$fpl$f2d) for __aeabi_f2d
    balance.o(i.Smooth_control) refers to dmul.o(x$fpl$dmul) for __aeabi_dmul
    balance.o(i.Smooth_control) refers to d2f.o(x$fpl$d2f) for __aeabi_d2f
    balance.o(i.Smooth_control) refers to balance.o(.bss) for .bss
    balance.o(i.SpeedVelocityToRotate) refers to balance.o(.data) for .data
    balance.o(i.Turn_Off) refers to balance.o(i.Set_MotorVelocity) for Set_MotorVelocity
    balance.o(i.Turn_Off) refers to balance.o(.data) for .data
    balance.o(i.Turn_Off) refers to application.o(.data) for Flag_Stop
    balance.o(i.Ultrasonic1_task) refers to thread.o(i.rt_thread_delay) for rt_thread_delay
    balance.o(i.Ultrasonic1_task) refers to n32g45x_gpio.o(i.GPIO_SetBits) for GPIO_SetBits
    balance.o(i.Ultrasonic1_task) refers to n32g45x_gpio.o(i.GPIO_ResetBits) for GPIO_ResetBits
    balance.o(i.Ultrasonic1_task) refers to n32g45x_gpio.o(i.GPIO_ReadInputDataBit) for GPIO_ReadInputDataBit
    balance.o(i.Ultrasonic1_task) refers to balance.o(.data) for .data
    balance.o(i.Ultrasonic1_task) refers to balance.o(.bss) for .bss
    balance.o(i.Ultrasonic2_task) refers to thread.o(i.rt_thread_delay) for rt_thread_delay
    balance.o(i.Ultrasonic2_task) refers to n32g45x_gpio.o(i.GPIO_SetBits) for GPIO_SetBits
    balance.o(i.Ultrasonic2_task) refers to n32g45x_gpio.o(i.GPIO_ResetBits) for GPIO_ResetBits
    balance.o(i.Ultrasonic2_task) refers to n32g45x_gpio.o(i.GPIO_ReadInputDataBit) for GPIO_ReadInputDataBit
    balance.o(i.Ultrasonic2_task) refers to balance.o(.data) for .data
    balance.o(i.Ultrasonic2_task) refers to balance.o(.bss) for .bss
    balance.o(i.UltrasonicProcess) refers to n32g45x_gpio.o(i.GPIO_SetBits) for GPIO_SetBits
    balance.o(i.UltrasonicProcess) refers to n32g45x_gpio.o(i.GPIO_ResetBits) for GPIO_ResetBits
    balance.o(i.UltrasonicProcess) refers to led.o(i.UltrasonicSetEnable) for UltrasonicSetEnable
    balance.o(i.UltrasonicProcess) refers to balance.o(.data) for .data
    balance.o(i.setGPIO) refers to n32g45x_gpio.o(i.GPIO_SetBits) for GPIO_SetBits
    balance.o(i.setGPIO) refers to n32g45x_gpio.o(i.GPIO_ResetBits) for GPIO_ResetBits
    robot_select_init.o(i.Robot_Init) refers to robot_select_init.o(.bss) for .bss
    robot_select_init.o(i.Robot_Init) refers to application.o(.data) for Wheel_perimeter
    robot_select_init.o(i.Robot_Init) refers to application.o(.data) for Wheel_spacing
    robot_select_init.o(i.Robot_Init) refers to application.o(.data) for Axle_spacing
    robot_select_init.o(i.Robot_Init) refers to application.o(.data) for Omni_turn_radiaus
    robot_select_init.o(i.Robot_Select) refers to mb.o(i.getPDUData) for getPDUData
    robot_select_init.o(i.Robot_Select) refers to application.o(.data) for g_emCarMode
    robot_select_init.o(i.Robot_Select) refers to application.o(.data) for g_ucRos_Flag
    robot_select_init.o(i.Robot_Select) refers to application.o(.data) for g_ucRemote_Flag
    robot_select_init.o(i.Robot_Select) refers to motor.o(.data) for Motor_Number
    robot_select_init.o(i.Robot_Select) refers to robot_select_init.o(.bss) for .bss
    robot_select_init.o(i.Robot_Select) refers to application.o(.data) for Wheel_perimeter
    robot_select_init.o(i.Robot_Select) refers to application.o(.data) for Wheel_spacing
    robot_select_init.o(i.Robot_Select) refers to application.o(.data) for Axle_spacing
    robot_select_init.o(i.Robot_Select) refers to application.o(.data) for Omni_turn_radiaus
    flash_wr.o(i.MyFLASH_WriteWord) refers to n32g45x_flash.o(i.FLASH_Unlock) for FLASH_Unlock
    flash_wr.o(i.MyFLASH_WriteWord) refers to n32g45x_flash.o(i.FLASH_ClearFlag) for FLASH_ClearFlag
    flash_wr.o(i.MyFLASH_WriteWord) refers to n32g45x_flash.o(i.FLASH_EraseOnePage) for FLASH_EraseOnePage
    flash_wr.o(i.MyFLASH_WriteWord) refers to n32g45x_flash.o(i.FLASH_ProgramWord) for FLASH_ProgramWord
    flash_wr.o(i.MyFLASH_WriteWord) refers to n32g45x_flash.o(i.FLASH_Lock) for FLASH_Lock
    rc_car.o(i.EncodeTimeInit) refers to n32g45x_rcc.o(i.RCC_EnableAPB1PeriphClk) for RCC_EnableAPB1PeriphClk
    rc_car.o(i.EncodeTimeInit) refers to n32g45x_tim.o(i.TIM_DeInit) for TIM_DeInit
    rc_car.o(i.EncodeTimeInit) refers to n32g45x_tim.o(i.TIM_InitTimBaseStruct) for TIM_InitTimBaseStruct
    rc_car.o(i.EncodeTimeInit) refers to n32g45x_tim.o(i.TIM_InitTimeBase) for TIM_InitTimeBase
    rc_car.o(i.EncodeTimeInit) refers to n32g45x_tim.o(i.TIM_InitIcStruct) for TIM_InitIcStruct
    rc_car.o(i.EncodeTimeInit) refers to n32g45x_tim.o(i.TIM_ICInit) for TIM_ICInit
    rc_car.o(i.EncodeTimeInit) refers to n32g45x_tim.o(i.TIM_ConfigEncoderInterface) for TIM_ConfigEncoderInterface
    rc_car.o(i.EncodeTimeInit) refers to n32g45x_tim.o(i.TIM_ConfigArPreload) for TIM_ConfigArPreload
    rc_car.o(i.EncodeTimeInit) refers to n32g45x_tim.o(i.TIM_SetCnt) for TIM_SetCnt
    rc_car.o(i.EncodeTimeInit) refers to n32g45x_tim.o(i.TIM_Enable) for TIM_Enable
    rc_car.o(i.EncodeTimeInit) refers to rc_car.o(.data) for .data
    rc_car.o(i.PWM_SetCompareTIMA_CH2) refers to n32g45x_tim.o(i.TIM_SetCmp2) for TIM_SetCmp2
    rc_car.o(i.PWM_SetCompareTIMA_CH2) refers to rc_car.o(.data) for .data
    rc_car.o(i.PWM_SetCompareTIML_CH1) refers to n32g45x_tim.o(i.TIM_SetCmp1) for TIM_SetCmp1
    rc_car.o(i.PWM_SetCompareTIML_CH1) refers to rc_car.o(.data) for .data
    rc_car.o(i.RCCAR_Init) refers to n32g45x_rcc.o(i.RCC_EnableAPB2PeriphClk) for RCC_EnableAPB2PeriphClk
    rc_car.o(i.RCCAR_Init) refers to n32g45x_rcc.o(i.RCC_EnableAPB1PeriphClk) for RCC_EnableAPB1PeriphClk
    rc_car.o(i.RCCAR_Init) refers to n32g45x_gpio.o(i.GPIO_InitPeripheral) for GPIO_InitPeripheral
    rc_car.o(i.RCCAR_Init) refers to n32g45x_gpio.o(i.GPIO_ConfigPinRemap) for GPIO_ConfigPinRemap
    rc_car.o(i.RCCAR_Init) refers to n32g45x_tim.o(i.TIM_InitTimeBase) for TIM_InitTimeBase
    rc_car.o(i.RCCAR_Init) refers to n32g45x_tim.o(i.TIM_InitOcStruct) for TIM_InitOcStruct
    rc_car.o(i.RCCAR_Init) refers to n32g45x_tim.o(i.TIM_InitOc1) for TIM_InitOc1
    rc_car.o(i.RCCAR_Init) refers to n32g45x_tim.o(i.TIM_ConfigOc1Preload) for TIM_ConfigOc1Preload
    rc_car.o(i.RCCAR_Init) refers to n32g45x_tim.o(i.TIM_ConfigArPreload) for TIM_ConfigArPreload
    rc_car.o(i.RCCAR_Init) refers to n32g45x_tim.o(i.TIM_InitOc2) for TIM_InitOc2
    rc_car.o(i.RCCAR_Init) refers to n32g45x_tim.o(i.TIM_ConfigOc2Preload) for TIM_ConfigOc2Preload
    rc_car.o(i.RCCAR_Init) refers to n32g45x_tim.o(i.TIM_Enable) for TIM_Enable
    rc_car.o(i.RCCAR_Init) refers to n32g45x_tim.o(i.TIM_EnableCtrlPwmOutputs) for TIM_EnableCtrlPwmOutputs
    rc_car.o(i.RCCAR_Init) refers to n32g45x_tim.o(i.TIM_DeInit) for TIM_DeInit
    rc_car.o(i.RCCAR_Init) refers to n32g45x_tim.o(i.TIM_InitTimBaseStruct) for TIM_InitTimBaseStruct
    rc_car.o(i.RCCAR_Init) refers to n32g45x_tim.o(i.TIM_InitIcStruct) for TIM_InitIcStruct
    rc_car.o(i.RCCAR_Init) refers to n32g45x_tim.o(i.TIM_ICInit) for TIM_ICInit
    rc_car.o(i.RCCAR_Init) refers to n32g45x_tim.o(i.TIM_ConfigEncoderInterface) for TIM_ConfigEncoderInterface
    rc_car.o(i.RCCAR_Init) refers to n32g45x_tim.o(i.TIM_SetCnt) for TIM_SetCnt
    rc_car.o(i.RCCAR_Init) refers to dflt_clz.o(x$fpl$dfltu) for __aeabi_ui2d
    rc_car.o(i.RCCAR_Init) refers to dmul.o(x$fpl$dmul) for __aeabi_dmul
    rc_car.o(i.RCCAR_Init) refers to d2f.o(x$fpl$d2f) for __aeabi_d2f
    rc_car.o(i.RCCAR_Init) refers to f2d.o(x$fpl$f2d) for __aeabi_f2d
    rc_car.o(i.RCCAR_Init) refers to rc_car.o(.data) for .data
    rc_car.o(i.RCCAR_Process) refers to n32g45x_tim.o(i.TIM_SetCmp1) for TIM_SetCmp1
    rc_car.o(i.RCCAR_Process) refers to n32g45x_tim.o(i.TIM_SetCmp2) for TIM_SetCmp2
    rc_car.o(i.RCCAR_Process) refers to rc_car.o(.data) for .data
    rt_memcpy_v6.o(.text) refers to rt_memcpy_w.o(.text) for __aeabi_memcpy4
    rt_memclr.o(.text) refers to rt_memclr_w.o(.text) for _memset_w
    __main.o(!!!main) refers to __rtentry.o(.ARM.Collect$$rtentry$$00000000) for __rt_entry
    d2f.o(x$fpl$d2f) refers (Special) to usenofp.o(x$fpl$usenofp) for __I$use$fp
    d2f.o(x$fpl$d2f) refers to fretinf.o(x$fpl$fretinf) for __fpl_fretinf
    d2f.o(x$fpl$d2f) refers to dnaninf.o(x$fpl$dnaninf) for __fpl_dnaninf
    daddsub_clz.o(x$fpl$dadd) refers (Special) to usenofp.o(x$fpl$usenofp) for __I$use$fp
    daddsub_clz.o(x$fpl$dadd) refers to daddsub_clz.o(x$fpl$dsub) for _dsub1
    daddsub_clz.o(x$fpl$dadd) refers to dretinf.o(x$fpl$dretinf) for __fpl_dretinf
    daddsub_clz.o(x$fpl$dadd) refers to dnaninf.o(x$fpl$dnaninf) for __fpl_dnaninf
    daddsub_clz.o(x$fpl$drsb) refers (Special) to usenofp.o(x$fpl$usenofp) for __I$use$fp
    daddsub_clz.o(x$fpl$drsb) refers to daddsub_clz.o(x$fpl$dadd) for _dadd1
    daddsub_clz.o(x$fpl$drsb) refers to daddsub_clz.o(x$fpl$dsub) for _dsub1
    daddsub_clz.o(x$fpl$dsub) refers (Special) to usenofp.o(x$fpl$usenofp) for __I$use$fp
    daddsub_clz.o(x$fpl$dsub) refers to daddsub_clz.o(x$fpl$dadd) for _dadd1
    daddsub_clz.o(x$fpl$dsub) refers to dnaninf.o(x$fpl$dnaninf) for __fpl_dnaninf
    ddiv.o(x$fpl$drdiv) refers (Special) to usenofp.o(x$fpl$usenofp) for __I$use$fp
    ddiv.o(x$fpl$drdiv) refers to ddiv.o(x$fpl$ddiv) for ddiv_entry
    ddiv.o(x$fpl$ddiv) refers (Special) to usenofp.o(x$fpl$usenofp) for __I$use$fp
    ddiv.o(x$fpl$ddiv) refers to dretinf.o(x$fpl$dretinf) for __fpl_dretinf
    ddiv.o(x$fpl$ddiv) refers to dnaninf.o(x$fpl$dnaninf) for __fpl_dnaninf
    dfix.o(x$fpl$dfix) refers (Special) to usenofp.o(x$fpl$usenofp) for __I$use$fp
    dfix.o(x$fpl$dfix) refers to dnaninf.o(x$fpl$dnaninf) for __fpl_dnaninf
    dfix.o(x$fpl$dfixr) refers (Special) to usenofp.o(x$fpl$usenofp) for __I$use$fp
    dfix.o(x$fpl$dfixr) refers to dnaninf.o(x$fpl$dnaninf) for __fpl_dnaninf
    dfixu.o(x$fpl$dfixu) refers (Special) to usenofp.o(x$fpl$usenofp) for __I$use$fp
    dfixu.o(x$fpl$dfixu) refers to dnaninf.o(x$fpl$dnaninf) for __fpl_dnaninf
    dfixu.o(x$fpl$dfixur) refers (Special) to usenofp.o(x$fpl$usenofp) for __I$use$fp
    dfixu.o(x$fpl$dfixur) refers to dnaninf.o(x$fpl$dnaninf) for __fpl_dnaninf
    dflt_clz.o(x$fpl$dfltu) refers (Special) to usenofp.o(x$fpl$usenofp) for __I$use$fp
    dflt_clz.o(x$fpl$dflt) refers (Special) to usenofp.o(x$fpl$usenofp) for __I$use$fp
    dflt_clz.o(x$fpl$dfltn) refers (Special) to usenofp.o(x$fpl$usenofp) for __I$use$fp
    dmul.o(x$fpl$dmul) refers (Special) to usenofp.o(x$fpl$usenofp) for __I$use$fp
    dmul.o(x$fpl$dmul) refers to dretinf.o(x$fpl$dretinf) for __fpl_dretinf
    dmul.o(x$fpl$dmul) refers to dnaninf.o(x$fpl$dnaninf) for __fpl_dnaninf
    drleqf.o(x$fpl$drleqf) refers (Special) to usenofp.o(x$fpl$usenofp) for __I$use$fp
    drleqf.o(x$fpl$drleqf) refers to dleqf.o(x$fpl$dleqf) for __fpl_dcmple_InfNaN
    f2d.o(x$fpl$f2d) refers (Special) to usenofp.o(x$fpl$usenofp) for __I$use$fp
    f2d.o(x$fpl$f2d) refers to fnaninf.o(x$fpl$fnaninf) for __fpl_fnaninf
    f2d.o(x$fpl$f2d) refers to dretinf.o(x$fpl$dretinf) for __fpl_dretinf
    sqrtf.o(i.__hardfp_sqrtf) refers (Special) to usenofp.o(x$fpl$usenofp) for __I$use$fp
    sqrtf.o(i.__hardfp_sqrtf) refers to _rserrno.o(.text) for __set_errno
    sqrtf.o(i.__softfp_sqrtf) refers (Special) to usenofp.o(x$fpl$usenofp) for __I$use$fp
    sqrtf.o(i.__softfp_sqrtf) refers to _rserrno.o(.text) for __set_errno
    sqrtf.o(i.sqrtf) refers (Special) to usenofp.o(x$fpl$usenofp) for __I$use$fp
    sqrtf.o(i.sqrtf) refers to _rserrno.o(.text) for __set_errno
    sqrtf_x.o(i.____hardfp_sqrtf$lsc) refers (Special) to usenofp.o(x$fpl$usenofp) for __I$use$fp
    sqrtf_x.o(i.____hardfp_sqrtf$lsc) refers to _rserrno.o(.text) for __set_errno
    sqrtf_x.o(i.____softfp_sqrtf$lsc) refers (Special) to usenofp.o(x$fpl$usenofp) for __I$use$fp
    sqrtf_x.o(i.____softfp_sqrtf$lsc) refers to _rserrno.o(.text) for __set_errno
    sqrtf_x.o(i.__sqrtf$lsc) refers (Special) to usenofp.o(x$fpl$usenofp) for __I$use$fp
    sqrtf_x.o(i.__sqrtf$lsc) refers to _rserrno.o(.text) for __set_errno
    __rtentry.o(.ARM.Collect$$rtentry$$00000000) refers (Special) to __rtentry2.o(.ARM.Collect$$rtentry$$0000000A) for __rt_entry_li
    __rtentry.o(.ARM.Collect$$rtentry$$00000000) refers (Special) to __rtentry2.o(.ARM.Collect$$rtentry$$0000000D) for __rt_entry_main
    __rtentry.o(.ARM.Collect$$rtentry$$00000000) refers (Special) to __rtentry2.o(.ARM.Collect$$rtentry$$0000000C) for __rt_entry_postli_1
    __rtentry.o(.ARM.Collect$$rtentry$$00000000) refers (Special) to __rtentry2.o(.ARM.Collect$$rtentry$$00000009) for __rt_entry_postsh_1
    __rtentry.o(.ARM.Collect$$rtentry$$00000000) refers (Special) to __rtentry2.o(.ARM.Collect$$rtentry$$00000002) for __rt_entry_presh_1
    __rtentry.o(.ARM.Collect$$rtentry$$00000000) refers (Special) to __rtentry4.o(.ARM.Collect$$rtentry$$00000004) for __rt_entry_sh
    _rserrno.o(.text) refers to rt_errno_addr_intlibspace.o(.text) for __aeabi_errno_addr
    dleqf.o(x$fpl$dleqf) refers (Special) to usenofp.o(x$fpl$usenofp) for __I$use$fp
    dleqf.o(x$fpl$dleqf) refers to dnaninf.o(x$fpl$dnaninf) for __fpl_dnaninf
    dleqf.o(x$fpl$dleqf) refers to dcmpi.o(x$fpl$dcmpinf) for __fpl_dcmp_Inf
    dnaninf.o(x$fpl$dnaninf) refers (Special) to usenofp.o(x$fpl$usenofp) for __I$use$fp
    dretinf.o(x$fpl$dretinf) refers (Special) to usenofp.o(x$fpl$usenofp) for __I$use$fp
    fnaninf.o(x$fpl$fnaninf) refers (Special) to usenofp.o(x$fpl$usenofp) for __I$use$fp
    fretinf.o(x$fpl$fretinf) refers (Special) to usenofp.o(x$fpl$usenofp) for __I$use$fp
    __rtentry2.o(.ARM.Collect$$rtentry$$00000008) refers to boardinit2.o(.text) for _platform_post_stackheap_init
    __rtentry2.o(.ARM.Collect$$rtentry$$0000000A) refers to libinit.o(.ARM.Collect$$libinit$$00000000) for __rt_lib_init
    __rtentry2.o(.ARM.Collect$$rtentry$$0000000B) refers to boardinit3.o(.text) for _platform_post_lib_init
    __rtentry2.o(.ARM.Collect$$rtentry$$0000000D) refers to main.o(i.main) for main
    __rtentry2.o(.ARM.Collect$$rtentry$$0000000D) refers to exit.o(.text) for exit
    __rtentry2.o(.ARM.exidx) refers to __rtentry2.o(.ARM.Collect$$rtentry$$00000001) for .ARM.Collect$$rtentry$$00000001
    __rtentry2.o(.ARM.exidx) refers to __rtentry2.o(.ARM.Collect$$rtentry$$00000008) for .ARM.Collect$$rtentry$$00000008
    __rtentry2.o(.ARM.exidx) refers to __rtentry2.o(.ARM.Collect$$rtentry$$0000000A) for .ARM.Collect$$rtentry$$0000000A
    __rtentry2.o(.ARM.exidx) refers to __rtentry2.o(.ARM.Collect$$rtentry$$0000000B) for .ARM.Collect$$rtentry$$0000000B
    __rtentry2.o(.ARM.exidx) refers to __rtentry2.o(.ARM.Collect$$rtentry$$0000000D) for .ARM.Collect$$rtentry$$0000000D
    __rtentry4.o(.ARM.Collect$$rtentry$$00000004) refers to sys_stackheap_outer.o(.text) for __user_setup_stackheap
    __rtentry4.o(.ARM.exidx) refers to __rtentry4.o(.ARM.Collect$$rtentry$$00000004) for .ARM.Collect$$rtentry$$00000004
    rt_errno_addr.o(.text) refers to rt_errno_addr.o(.bss) for __aeabi_errno_addr_data
    rt_errno_addr_intlibspace.o(.text) refers to libspace.o(.bss) for __libspace_start
    dcmpi.o(x$fpl$dcmpinf) refers (Special) to usenofp.o(x$fpl$usenofp) for __I$use$fp
    libspace.o(.text) refers to libspace.o(.bss) for __libspace_start
    sys_stackheap_outer.o(.text) refers to libspace.o(.text) for __user_perproc_libspace
    sys_stackheap_outer.o(.text) refers to startup_n32g45x.o(.text) for __user_initial_stackheap
    exit.o(.text) refers to rtexit.o(.ARM.Collect$$rtexit$$00000000) for __rt_exit
    libinit.o(.ARM.Collect$$libinit$$00000000) refers (Special) to libinit2.o(.ARM.Collect$$libinit$$0000002E) for __rt_lib_init_alloca_1
    libinit.o(.ARM.Collect$$libinit$$00000000) refers (Special) to libinit2.o(.ARM.Collect$$libinit$$0000002C) for __rt_lib_init_argv_1
    libinit.o(.ARM.Collect$$libinit$$00000000) refers (Special) to libinit2.o(.ARM.Collect$$libinit$$0000001B) for __rt_lib_init_atexit_1
    libinit.o(.ARM.Collect$$libinit$$00000000) refers (Special) to libinit2.o(.ARM.Collect$$libinit$$00000021) for __rt_lib_init_clock_1
    libinit.o(.ARM.Collect$$libinit$$00000000) refers (Special) to libinit2.o(.ARM.Collect$$libinit$$00000032) for __rt_lib_init_cpp_1
    libinit.o(.ARM.Collect$$libinit$$00000000) refers (Special) to libinit2.o(.ARM.Collect$$libinit$$00000030) for __rt_lib_init_exceptions_1
    libinit.o(.ARM.Collect$$libinit$$00000000) refers (Special) to libinit2.o(.ARM.Collect$$libinit$$00000001) for __rt_lib_init_fp_1
    libinit.o(.ARM.Collect$$libinit$$00000000) refers (Special) to libinit2.o(.ARM.Collect$$libinit$$0000001F) for __rt_lib_init_fp_trap_1
    libinit.o(.ARM.Collect$$libinit$$00000000) refers (Special) to libinit2.o(.ARM.Collect$$libinit$$00000023) for __rt_lib_init_getenv_1
    libinit.o(.ARM.Collect$$libinit$$00000000) refers (Special) to libinit2.o(.ARM.Collect$$libinit$$0000000A) for __rt_lib_init_heap_1
    libinit.o(.ARM.Collect$$libinit$$00000000) refers (Special) to libinit2.o(.ARM.Collect$$libinit$$00000011) for __rt_lib_init_lc_collate_1
    libinit.o(.ARM.Collect$$libinit$$00000000) refers (Special) to libinit2.o(.ARM.Collect$$libinit$$00000013) for __rt_lib_init_lc_ctype_1
    libinit.o(.ARM.Collect$$libinit$$00000000) refers (Special) to libinit2.o(.ARM.Collect$$libinit$$00000015) for __rt_lib_init_lc_monetary_1
    libinit.o(.ARM.Collect$$libinit$$00000000) refers (Special) to libinit2.o(.ARM.Collect$$libinit$$00000017) for __rt_lib_init_lc_numeric_1
    libinit.o(.ARM.Collect$$libinit$$00000000) refers (Special) to libinit2.o(.ARM.Collect$$libinit$$00000019) for __rt_lib_init_lc_time_1
    libinit.o(.ARM.Collect$$libinit$$00000000) refers (Special) to libinit2.o(.ARM.Collect$$libinit$$00000004) for __rt_lib_init_preinit_1
    libinit.o(.ARM.Collect$$libinit$$00000000) refers (Special) to libinit2.o(.ARM.Collect$$libinit$$0000000E) for __rt_lib_init_rand_1
    libinit.o(.ARM.Collect$$libinit$$00000000) refers (Special) to libinit2.o(.ARM.Collect$$libinit$$00000033) for __rt_lib_init_return
    libinit.o(.ARM.Collect$$libinit$$00000000) refers (Special) to libinit2.o(.ARM.Collect$$libinit$$0000001D) for __rt_lib_init_signal_1
    libinit.o(.ARM.Collect$$libinit$$00000000) refers (Special) to libinit2.o(.ARM.Collect$$libinit$$00000025) for __rt_lib_init_stdio_1
    libinit.o(.ARM.Collect$$libinit$$00000000) refers (Special) to libinit2.o(.ARM.Collect$$libinit$$0000000C) for __rt_lib_init_user_alloc_1
    rtexit.o(.ARM.Collect$$rtexit$$00000000) refers (Special) to rtexit2.o(.ARM.Collect$$rtexit$$00000004) for __rt_exit_exit
    rtexit.o(.ARM.Collect$$rtexit$$00000000) refers (Special) to rtexit2.o(.ARM.Collect$$rtexit$$00000003) for __rt_exit_ls
    rtexit.o(.ARM.Collect$$rtexit$$00000000) refers (Special) to rtexit2.o(.ARM.Collect$$rtexit$$00000002) for __rt_exit_prels_1
    rtexit.o(.ARM.exidx) refers (Special) to rtexit2.o(.ARM.Collect$$rtexit$$00000004) for __rt_exit_exit
    rtexit.o(.ARM.exidx) refers (Special) to rtexit2.o(.ARM.Collect$$rtexit$$00000003) for __rt_exit_ls
    rtexit.o(.ARM.exidx) refers (Special) to rtexit2.o(.ARM.Collect$$rtexit$$00000002) for __rt_exit_prels_1
    rtexit.o(.ARM.exidx) refers to rtexit.o(.ARM.Collect$$rtexit$$00000000) for .ARM.Collect$$rtexit$$00000000
    libinit2.o(.ARM.Collect$$libinit$$00000001) refers to fpinit.o(x$fpl$fpinit) for _fp_init
    libinit2.o(.ARM.Collect$$libinit$$00000010) refers to libinit2.o(.ARM.Collect$$libinit$$0000000F) for .ARM.Collect$$libinit$$0000000F
    libinit2.o(.ARM.Collect$$libinit$$00000012) refers to libinit2.o(.ARM.Collect$$libinit$$0000000F) for .ARM.Collect$$libinit$$0000000F
    libinit2.o(.ARM.Collect$$libinit$$00000014) refers to libinit2.o(.ARM.Collect$$libinit$$0000000F) for .ARM.Collect$$libinit$$0000000F
    libinit2.o(.ARM.Collect$$libinit$$00000016) refers to libinit2.o(.ARM.Collect$$libinit$$0000000F) for .ARM.Collect$$libinit$$0000000F
    libinit2.o(.ARM.Collect$$libinit$$00000018) refers to libinit2.o(.ARM.Collect$$libinit$$0000000F) for .ARM.Collect$$libinit$$0000000F
    libinit2.o(.ARM.Collect$$libinit$$00000026) refers to argv_veneer.o(.emb_text) for __ARM_argv_veneer
    libinit2.o(.ARM.Collect$$libinit$$00000027) refers to argv_veneer.o(.emb_text) for __ARM_argv_veneer
    rtexit2.o(.ARM.Collect$$rtexit$$00000003) refers to libshutdown.o(.ARM.Collect$$libshutdown$$00000000) for __rt_lib_shutdown
    rtexit2.o(.ARM.Collect$$rtexit$$00000004) refers to sys_exit.o(.text) for _sys_exit
    rtexit2.o(.ARM.exidx) refers to rtexit2.o(.ARM.Collect$$rtexit$$00000001) for .ARM.Collect$$rtexit$$00000001
    rtexit2.o(.ARM.exidx) refers to rtexit2.o(.ARM.Collect$$rtexit$$00000003) for .ARM.Collect$$rtexit$$00000003
    rtexit2.o(.ARM.exidx) refers to rtexit2.o(.ARM.Collect$$rtexit$$00000004) for .ARM.Collect$$rtexit$$00000004
    argv_veneer.o(.emb_text) refers to no_argv.o(.text) for __ARM_get_argv
    sys_exit.o(.text) refers (Special) to use_no_semi.o(.text) for __I$use$semihosting
    sys_exit.o(.text) refers (Special) to indicate_semi.o(.text) for __semihosting_library_function
    _get_argv_nomalloc.o(.text) refers (Special) to hrguard.o(.text) for __heap_region$guard
    _get_argv_nomalloc.o(.text) refers to defsig_rtmem_outer.o(.text) for __rt_SIGRTMEM
    _get_argv_nomalloc.o(.text) refers to sys_command.o(.text) for _sys_command_string
    libshutdown.o(.ARM.Collect$$libshutdown$$00000000) refers (Special) to libshutdown2.o(.ARM.Collect$$libshutdown$$00000004) for __rt_lib_shutdown_cpp_1
    libshutdown.o(.ARM.Collect$$libshutdown$$00000000) refers (Special) to libshutdown2.o(.ARM.Collect$$libshutdown$$00000002) for __rt_lib_shutdown_fini_1
    libshutdown.o(.ARM.Collect$$libshutdown$$00000000) refers (Special) to libshutdown2.o(.ARM.Collect$$libshutdown$$00000009) for __rt_lib_shutdown_fp_trap_1
    libshutdown.o(.ARM.Collect$$libshutdown$$00000000) refers (Special) to libshutdown2.o(.ARM.Collect$$libshutdown$$00000011) for __rt_lib_shutdown_heap_1
    libshutdown.o(.ARM.Collect$$libshutdown$$00000000) refers (Special) to libshutdown2.o(.ARM.Collect$$libshutdown$$00000012) for __rt_lib_shutdown_return
    libshutdown.o(.ARM.Collect$$libshutdown$$00000000) refers (Special) to libshutdown2.o(.ARM.Collect$$libshutdown$$0000000C) for __rt_lib_shutdown_signal_1
    libshutdown.o(.ARM.Collect$$libshutdown$$00000000) refers (Special) to libshutdown2.o(.ARM.Collect$$libshutdown$$00000006) for __rt_lib_shutdown_stdio_1
    libshutdown.o(.ARM.Collect$$libshutdown$$00000000) refers (Special) to libshutdown2.o(.ARM.Collect$$libshutdown$$0000000E) for __rt_lib_shutdown_user_alloc_1
    sys_command.o(.text) refers (Special) to use_no_semi.o(.text) for __I$use$semihosting
    sys_command.o(.text) refers (Special) to indicate_semi.o(.text) for __semihosting_library_function
    defsig_rtmem_outer.o(.text) refers to defsig_rtmem_inner.o(.text) for __rt_SIGRTMEM_inner
    defsig_rtmem_outer.o(.text) refers to defsig_exit.o(.text) for __sig_exit
    defsig_rtmem_formal.o(.text) refers to rt_raise.o(.text) for __rt_raise
    rt_raise.o(.text) refers to __raise.o(.text) for __raise
    rt_raise.o(.text) refers to sys_exit.o(.text) for _sys_exit
    defsig_exit.o(.text) refers to sys_exit.o(.text) for _sys_exit
    defsig_rtmem_inner.o(.text) refers to defsig_general.o(.text) for __default_signal_display
    __raise.o(.text) refers to defsig.o(CL$$defsig) for __default_signal_handler
    defsig_general.o(.text) refers to sys_wrch.o(.text) for _ttywrch
    sys_wrch.o(.text) refers (Special) to use_no_semi.o(.text) for __I$use$semihosting
    sys_wrch.o(.text) refers (Special) to indicate_semi.o(.text) for __semihosting_library_function
    defsig.o(CL$$defsig) refers to defsig_rtmem_inner.o(.text) for __rt_SIGRTMEM_inner
    defsig_abrt_inner.o(.text) refers to defsig_general.o(.text) for __default_signal_display
    defsig_fpe_inner.o(.text) refers to defsig_general.o(.text) for __default_signal_display
    defsig_rtred_inner.o(.text) refers to defsig_general.o(.text) for __default_signal_display
    defsig_stak_inner.o(.text) refers to defsig_general.o(.text) for __default_signal_display
    defsig_pvfn_inner.o(.text) refers to defsig_general.o(.text) for __default_signal_display
    defsig_cppl_inner.o(.text) refers to defsig_general.o(.text) for __default_signal_display
    defsig_segv_inner.o(.text) refers to defsig_general.o(.text) for __default_signal_display
    defsig_other.o(.text) refers to defsig_general.o(.text) for __default_signal_display


==============================================================================

Removing Unused input sections from the image.

    Removing system_n32g45x.o(.rev16_text), (4 bytes).
    Removing system_n32g45x.o(.revsh_text), (4 bytes).
    Removing system_n32g45x.o(.rrx_text), (6 bytes).
    Removing system_n32g45x.o(i.SystemCoreClockUpdate), (124 bytes).
    Removing system_n32g45x.o(.constdata), (16 bytes).
    Removing misc.o(.rev16_text), (4 bytes).
    Removing misc.o(.revsh_text), (4 bytes).
    Removing misc.o(.rrx_text), (6 bytes).
    Removing misc.o(i.NVIC_SetVectorTable), (20 bytes).
    Removing misc.o(i.NVIC_SystemLPConfig), (24 bytes).
    Removing misc.o(i.SysTick_CLKSourceConfig), (20 bytes).
    Removing n32g45x_can.o(.rev16_text), (4 bytes).
    Removing n32g45x_can.o(.revsh_text), (4 bytes).
    Removing n32g45x_can.o(.rrx_text), (6 bytes).
    Removing n32g45x_can.o(i.CAN_CancelTransmitMessage), (40 bytes).
    Removing n32g45x_can.o(i.CAN_ClearINTPendingBit), (156 bytes).
    Removing n32g45x_can.o(i.CAN_DebugFreeze), (18 bytes).
    Removing n32g45x_can.o(i.CAN_EnTTComMode), (90 bytes).
    Removing n32g45x_can.o(i.CAN_EnterSleep), (30 bytes).
    Removing n32g45x_can.o(i.CAN_GetFlagSTS), (82 bytes).
    Removing n32g45x_can.o(i.CAN_GetIntStatus), (272 bytes).
    Removing n32g45x_can.o(i.CAN_GetLSBTransmitErrCounter), (8 bytes).
    Removing n32g45x_can.o(i.CAN_GetLastErrCode), (10 bytes).
    Removing n32g45x_can.o(i.CAN_GetReceiveErrCounter), (6 bytes).
    Removing n32g45x_can.o(i.CAN_OperatingModeReq), (138 bytes).
    Removing n32g45x_can.o(i.CAN_PendingMessage), (26 bytes).
    Removing n32g45x_can.o(i.CAN_ReleaseFIFO), (22 bytes).
    Removing n32g45x_can.o(i.CAN_TransmitSTS), (124 bytes).
    Removing n32g45x_can.o(i.CAN_WakeUp), (42 bytes).
    Removing n32g45x_dma.o(.rev16_text), (4 bytes).
    Removing n32g45x_dma.o(.revsh_text), (4 bytes).
    Removing n32g45x_dma.o(.rrx_text), (6 bytes).
    Removing n32g45x_dma.o(i.DMA_ClearFlag), (4 bytes).
    Removing n32g45x_dma.o(i.DMA_GetFlagStatus), (14 bytes).
    Removing n32g45x_flash.o(.rev16_text), (4 bytes).
    Removing n32g45x_flash.o(.revsh_text), (4 bytes).
    Removing n32g45x_flash.o(.rrx_text), (6 bytes).
    Removing n32g45x_flash.o(i.FLASH_ConfigUserOB), (212 bytes).
    Removing n32g45x_flash.o(i.FLASH_EnWriteProtection), (180 bytes).
    Removing n32g45x_flash.o(i.FLASH_EraseOB), (176 bytes).
    Removing n32g45x_flash.o(i.FLASH_GetFlagSTS), (40 bytes).
    Removing n32g45x_flash.o(i.FLASH_GetPrefetchBufSTS), (20 bytes).
    Removing n32g45x_flash.o(i.FLASH_GetReadOutProtectionL2STS), (20 bytes).
    Removing n32g45x_flash.o(i.FLASH_GetReadOutProtectionSTS), (20 bytes).
    Removing n32g45x_flash.o(i.FLASH_GetSMPSELStatus), (20 bytes).
    Removing n32g45x_flash.o(i.FLASH_GetSTS), (68 bytes).
    Removing n32g45x_flash.o(i.FLASH_GetUserOB), (16 bytes).
    Removing n32g45x_flash.o(i.FLASH_GetWriteProtectionOB), (12 bytes).
    Removing n32g45x_flash.o(i.FLASH_INTConfig), (24 bytes).
    Removing n32g45x_flash.o(i.FLASH_MassErase), (68 bytes).
    Removing n32g45x_flash.o(i.FLASH_ProgramOBData), (96 bytes).
    Removing n32g45x_flash.o(i.FLASH_ReadOutProtectionL1), (180 bytes).
    Removing n32g45x_flash.o(i.FLASH_ReadOutProtectionL2_ENABLE), (212 bytes).
    Removing n32g45x_flash.o(i.FLASH_SetSMPSELStatus), (24 bytes).
    Removing n32g45x_flash.o(i.FLASH_iCacheRST), (16 bytes).
    Removing n32g45x_gpio.o(.rev16_text), (4 bytes).
    Removing n32g45x_gpio.o(.revsh_text), (4 bytes).
    Removing n32g45x_gpio.o(.rrx_text), (6 bytes).
    Removing n32g45x_gpio.o(i.GPIO_AFIOInitDefault), (22 bytes).
    Removing n32g45x_gpio.o(i.GPIO_ConfigEXTILine), (40 bytes).
    Removing n32g45x_gpio.o(i.GPIO_ConfigEventOutput), (28 bytes).
    Removing n32g45x_gpio.o(i.GPIO_ConfigPinLock), (16 bytes).
    Removing n32g45x_gpio.o(i.GPIO_CtrlEventOutput), (12 bytes).
    Removing n32g45x_gpio.o(i.GPIO_ETH_ConfigMediaInterface), (24 bytes).
    Removing n32g45x_gpio.o(i.GPIO_ReadInputData), (6 bytes).
    Removing n32g45x_gpio.o(i.GPIO_ReadOutputData), (6 bytes).
    Removing n32g45x_gpio.o(i.GPIO_SetBitsHigh16), (4 bytes).
    Removing n32g45x_gpio.o(i.GPIO_Write), (4 bytes).
    Removing n32g45x_rcc.o(.rev16_text), (4 bytes).
    Removing n32g45x_rcc.o(.revsh_text), (4 bytes).
    Removing n32g45x_rcc.o(.rrx_text), (6 bytes).
    Removing n32g45x_rcc.o(i.RCC_ClrFlag), (24 bytes).
    Removing n32g45x_rcc.o(i.RCC_ClrIntPendingBit), (12 bytes).
    Removing n32g45x_rcc.o(i.RCC_ConfigHSITrim), (56 bytes).
    Removing n32g45x_rcc.o(i.RCC_ConfigHse), (56 bytes).
    Removing n32g45x_rcc.o(i.RCC_ConfigInt), (24 bytes).
    Removing n32g45x_rcc.o(i.RCC_ConfigLse), (36 bytes).
    Removing n32g45x_rcc.o(i.RCC_ConfigMco), (20 bytes).
    Removing n32g45x_rcc.o(i.RCC_ConfigMcoPllClk), (20 bytes).
    Removing n32g45x_rcc.o(i.RCC_ConfigRngcClk), (20 bytes).
    Removing n32g45x_rcc.o(i.RCC_ConfigRtcClk), (24 bytes).
    Removing n32g45x_rcc.o(i.RCC_ConfigTim18Clk), (20 bytes).
    Removing n32g45x_rcc.o(i.RCC_ConfigTrng1mClk), (20 bytes).
    Removing n32g45x_rcc.o(i.RCC_ConfigUsbClk), (16 bytes).
    Removing n32g45x_rcc.o(i.RCC_EnableAHBPeriphReset), (24 bytes).
    Removing n32g45x_rcc.o(i.RCC_EnableBORReset), (24 bytes).
    Removing n32g45x_rcc.o(i.RCC_EnableBackupReset), (12 bytes).
    Removing n32g45x_rcc.o(i.RCC_EnableClockSecuritySystem), (12 bytes).
    Removing n32g45x_rcc.o(i.RCC_EnableLsi), (12 bytes).
    Removing n32g45x_rcc.o(i.RCC_EnableRtcClk), (12 bytes).
    Removing n32g45x_rcc.o(i.RCC_EnableTrng1mClk), (24 bytes).
    Removing n32g45x_rcc.o(i.RCC_GetCurHSITrim), (16 bytes).
    Removing n32g45x_rcc.o(i.RCC_GetIntStatus), (20 bytes).
    Removing n32g45x_rcc.o(i.RCC_SetHsiCalibValue), (20 bytes).
    Removing n32g45x_rcc.o(i.RCC_WaitHseStable), (56 bytes).
    Removing n32g45x_tim.o(.rev16_text), (4 bytes).
    Removing n32g45x_tim.o(.revsh_text), (4 bytes).
    Removing n32g45x_tim.o(.rrx_text), (6 bytes).
    Removing n32g45x_tim.o(i.TIM_ClrOc1Ref), (12 bytes).
    Removing n32g45x_tim.o(i.TIM_ClrOc2Ref), (20 bytes).
    Removing n32g45x_tim.o(i.TIM_ClrOc3Ref), (12 bytes).
    Removing n32g45x_tim.o(i.TIM_ClrOc4Ref), (20 bytes).
    Removing n32g45x_tim.o(i.TIM_ClrOc5Ref), (16 bytes).
    Removing n32g45x_tim.o(i.TIM_ClrOc6Ref), (24 bytes).
    Removing n32g45x_tim.o(i.TIM_ConfigBkdt), (82 bytes).
    Removing n32g45x_tim.o(i.TIM_ConfigCntMode), (12 bytes).
    Removing n32g45x_tim.o(i.TIM_ConfigDma), (8 bytes).
    Removing n32g45x_tim.o(i.TIM_ConfigExtClkMode1), (40 bytes).
    Removing n32g45x_tim.o(i.TIM_ConfigExtClkMode2), (40 bytes).
    Removing n32g45x_tim.o(i.TIM_ConfigExtTrig), (32 bytes).
    Removing n32g45x_tim.o(i.TIM_ConfigExtTrigAsClk), (158 bytes).
    Removing n32g45x_tim.o(i.TIM_ConfigForcedOc1), (12 bytes).
    Removing n32g45x_tim.o(i.TIM_ConfigForcedOc2), (20 bytes).
    Removing n32g45x_tim.o(i.TIM_ConfigForcedOc3), (12 bytes).
    Removing n32g45x_tim.o(i.TIM_ConfigForcedOc4), (20 bytes).
    Removing n32g45x_tim.o(i.TIM_ConfigForcedOc5), (16 bytes).
    Removing n32g45x_tim.o(i.TIM_ConfigForcedOc6), (24 bytes).
    Removing n32g45x_tim.o(i.TIM_ConfigInternalClk), (10 bytes).
    Removing n32g45x_tim.o(i.TIM_ConfigInternalTrigToExt), (20 bytes).
    Removing n32g45x_tim.o(i.TIM_ConfigOc1Fast), (12 bytes).
    Removing n32g45x_tim.o(i.TIM_ConfigOc1NPolarity), (12 bytes).
    Removing n32g45x_tim.o(i.TIM_ConfigOc1Polarity), (12 bytes).
    Removing n32g45x_tim.o(i.TIM_ConfigOc2Fast), (20 bytes).
    Removing n32g45x_tim.o(i.TIM_ConfigOc2NPolarity), (14 bytes).
    Removing n32g45x_tim.o(i.TIM_ConfigOc2Polarity), (14 bytes).
    Removing n32g45x_tim.o(i.TIM_ConfigOc3Fast), (12 bytes).
    Removing n32g45x_tim.o(i.TIM_ConfigOc3NPolarity), (14 bytes).
    Removing n32g45x_tim.o(i.TIM_ConfigOc3Polarity), (14 bytes).
    Removing n32g45x_tim.o(i.TIM_ConfigOc3Preload), (12 bytes).
    Removing n32g45x_tim.o(i.TIM_ConfigOc4Fast), (20 bytes).
    Removing n32g45x_tim.o(i.TIM_ConfigOc4Polarity), (14 bytes).
    Removing n32g45x_tim.o(i.TIM_ConfigOc5Fast), (16 bytes).
    Removing n32g45x_tim.o(i.TIM_ConfigOc5Polarity), (14 bytes).
    Removing n32g45x_tim.o(i.TIM_ConfigOc5Preload), (16 bytes).
    Removing n32g45x_tim.o(i.TIM_ConfigOc6Fast), (24 bytes).
    Removing n32g45x_tim.o(i.TIM_ConfigOc6Polarity), (14 bytes).
    Removing n32g45x_tim.o(i.TIM_ConfigOc6Preload), (24 bytes).
    Removing n32g45x_tim.o(i.TIM_ConfigPrescaler), (6 bytes).
    Removing n32g45x_tim.o(i.TIM_ConfigUpdateRequestIntSrc), (18 bytes).
    Removing n32g45x_tim.o(i.TIM_EnableCapCmpCh), (28 bytes).
    Removing n32g45x_tim.o(i.TIM_EnableCapCmpChN), (28 bytes).
    Removing n32g45x_tim.o(i.TIM_EnableCapCmpPreloadControl), (18 bytes).
    Removing n32g45x_tim.o(i.TIM_EnableDma), (16 bytes).
    Removing n32g45x_tim.o(i.TIM_EnableUpdateEvt), (18 bytes).
    Removing n32g45x_tim.o(i.TIM_GenerateEvent), (4 bytes).
    Removing n32g45x_tim.o(i.TIM_GetAutoReload), (4 bytes).
    Removing n32g45x_tim.o(i.TIM_GetCCENStatus), (80 bytes).
    Removing n32g45x_tim.o(i.TIM_GetCap1), (4 bytes).
    Removing n32g45x_tim.o(i.TIM_GetCap3), (4 bytes).
    Removing n32g45x_tim.o(i.TIM_GetCap4), (6 bytes).
    Removing n32g45x_tim.o(i.TIM_GetCap5), (6 bytes).
    Removing n32g45x_tim.o(i.TIM_GetCap6), (6 bytes).
    Removing n32g45x_tim.o(i.TIM_GetFlagStatus), (14 bytes).
    Removing n32g45x_tim.o(i.TIM_GetPrescaler), (4 bytes).
    Removing n32g45x_tim.o(i.TIM_InitBkdtStruct), (18 bytes).
    Removing n32g45x_tim.o(i.TIM_InitOc3), (116 bytes).
    Removing n32g45x_tim.o(i.TIM_InitOc5), (94 bytes).
    Removing n32g45x_tim.o(i.TIM_InitOc6), (102 bytes).
    Removing n32g45x_tim.o(i.TIM_SelectCapCmpDmaSrc), (18 bytes).
    Removing n32g45x_tim.o(i.TIM_SelectComEvt), (18 bytes).
    Removing n32g45x_tim.o(i.TIM_SelectExtSignalSource), (16 bytes).
    Removing n32g45x_tim.o(i.TIM_SelectHallSensor), (18 bytes).
    Removing n32g45x_tim.o(i.TIM_SelectMasterSlaveMode), (16 bytes).
    Removing n32g45x_tim.o(i.TIM_SelectOcMode), (102 bytes).
    Removing n32g45x_tim.o(i.TIM_SelectOnePulseMode), (16 bytes).
    Removing n32g45x_tim.o(i.TIM_SelectOutputTrig), (16 bytes).
    Removing n32g45x_tim.o(i.TIM_SetAutoReload), (4 bytes).
    Removing n32g45x_tim.o(i.TIM_SetClkDiv), (16 bytes).
    Removing n32g45x_tim.o(i.TIM_SetCmp3), (4 bytes).
    Removing n32g45x_tim.o(i.TIM_SetCmp5), (6 bytes).
    Removing n32g45x_tim.o(i.TIM_SetCmp6), (6 bytes).
    Removing n32g45x_tim.o(i.TIM_SetInCap1Prescaler), (16 bytes).
    Removing n32g45x_tim.o(i.TIM_SetInCap2Prescaler), (24 bytes).
    Removing n32g45x_tim.o(i.TIM_SetInCap3Prescaler), (16 bytes).
    Removing n32g45x_tim.o(i.TIM_SetInCap4Prescaler), (24 bytes).
    Removing n32g45x_usart.o(.rev16_text), (4 bytes).
    Removing n32g45x_usart.o(.revsh_text), (4 bytes).
    Removing n32g45x_usart.o(.rrx_text), (6 bytes).
    Removing n32g45x_usart.o(i.USART_ClockInit), (36 bytes).
    Removing n32g45x_usart.o(i.USART_ClockStructInit), (12 bytes).
    Removing n32g45x_usart.o(i.USART_ClrIntPendingBit), (14 bytes).
    Removing n32g45x_usart.o(i.USART_ConfigIrDAMode), (16 bytes).
    Removing n32g45x_usart.o(i.USART_ConfigLINBreakDetectLength), (16 bytes).
    Removing n32g45x_usart.o(i.USART_ConfigWakeUpMode), (16 bytes).
    Removing n32g45x_usart.o(i.USART_EnableHalfDuplex), (18 bytes).
    Removing n32g45x_usart.o(i.USART_EnableIrDA), (18 bytes).
    Removing n32g45x_usart.o(i.USART_EnableLIN), (18 bytes).
    Removing n32g45x_usart.o(i.USART_EnableRcvWakeUp), (18 bytes).
    Removing n32g45x_usart.o(i.USART_EnableSmartCard), (18 bytes).
    Removing n32g45x_usart.o(i.USART_GetFlagStatus), (14 bytes).
    Removing n32g45x_usart.o(i.USART_SendBreak), (10 bytes).
    Removing n32g45x_usart.o(i.USART_SendData), (8 bytes).
    Removing n32g45x_usart.o(i.USART_SetAddr), (16 bytes).
    Removing n32g45x_usart.o(i.USART_SetGuardTime), (16 bytes).
    Removing n32g45x_usart.o(i.USART_SetPrescaler), (16 bytes).
    Removing n32g45x_usart.o(i.USART_SetSmartCardNACK), (18 bytes).
    Removing n32g45x_usart.o(i.USART_StructInit), (22 bytes).
    Removing n32g45x_spi.o(.rev16_text), (4 bytes).
    Removing n32g45x_spi.o(.revsh_text), (4 bytes).
    Removing n32g45x_spi.o(.rrx_text), (6 bytes).
    Removing n32g45x_spi.o(i.I2S_Enable), (18 bytes).
    Removing n32g45x_spi.o(i.I2S_Init), (176 bytes).
    Removing n32g45x_spi.o(i.I2S_InitStruct), (18 bytes).
    Removing n32g45x_spi.o(i.SPI_ConfigBidirectionalMode), (20 bytes).
    Removing n32g45x_spi.o(i.SPI_ConfigDataLen), (16 bytes).
    Removing n32g45x_spi.o(i.SPI_EnableCalculateCrc), (18 bytes).
    Removing n32g45x_spi.o(i.SPI_GetCRCDat), (10 bytes).
    Removing n32g45x_spi.o(i.SPI_GetCRCPoly), (4 bytes).
    Removing n32g45x_spi.o(i.SPI_I2S_ClrCRCErrFlag), (6 bytes).
    Removing n32g45x_spi.o(i.SPI_I2S_ClrITPendingBit), (16 bytes).
    Removing n32g45x_spi.o(i.SPI_I2S_DeInit), (100 bytes).
    Removing n32g45x_spi.o(i.SPI_I2S_EnableDma), (16 bytes).
    Removing n32g45x_spi.o(i.SPI_I2S_GetIntStatus), (46 bytes).
    Removing n32g45x_spi.o(i.SPI_I2S_ReceiveData), (4 bytes).
    Removing n32g45x_spi.o(i.SPI_I2S_TransmitData), (4 bytes).
    Removing n32g45x_spi.o(i.SPI_InitStruct), (24 bytes).
    Removing n32g45x_spi.o(i.SPI_SSOutputEnable), (18 bytes).
    Removing n32g45x_spi.o(i.SPI_SetNssLevel), (22 bytes).
    Removing n32g45x_spi.o(i.SPI_TransmitCrcNext), (10 bytes).
    Removing n32g45x_adc.o(.rev16_text), (4 bytes).
    Removing n32g45x_adc.o(.revsh_text), (4 bytes).
    Removing n32g45x_adc.o(.rrx_text), (6 bytes).
    Removing n32g45x_adc.o(i.ADC_AHB_Clock_Mode_Config), (10 bytes).
    Removing n32g45x_adc.o(i.ADC_ClearIntPendingBit), (10 bytes).
    Removing n32g45x_adc.o(i.ADC_ConfigAnalogWatchdogSingleChannel), (12 bytes).
    Removing n32g45x_adc.o(i.ADC_ConfigAnalogWatchdogThresholds), (6 bytes).
    Removing n32g45x_adc.o(i.ADC_ConfigAnalogWatchdogWorkChannelType), (16 bytes).
    Removing n32g45x_adc.o(i.ADC_ConfigDiscModeChannelCount), (16 bytes).
    Removing n32g45x_adc.o(i.ADC_ConfigExternalTrigInjectedConv), (12 bytes).
    Removing n32g45x_adc.o(i.ADC_ConfigInjectedChannel), (116 bytes).
    Removing n32g45x_adc.o(i.ADC_ConfigInjectedSequencerLength), (16 bytes).
    Removing n32g45x_adc.o(i.ADC_ConfigInt), (18 bytes).
    Removing n32g45x_adc.o(i.ADC_DeInit), (132 bytes).
    Removing n32g45x_adc.o(i.ADC_EnableAutoInjectedConv), (18 bytes).
    Removing n32g45x_adc.o(i.ADC_EnableDMA), (18 bytes).
    Removing n32g45x_adc.o(i.ADC_EnableDiscMode), (18 bytes).
    Removing n32g45x_adc.o(i.ADC_EnableExternalTrigConv), (18 bytes).
    Removing n32g45x_adc.o(i.ADC_EnableExternalTrigInjectedConv), (18 bytes).
    Removing n32g45x_adc.o(i.ADC_EnableInjectedDiscMode), (18 bytes).
    Removing n32g45x_adc.o(i.ADC_EnableSoftwareStartInjectedConv), (18 bytes).
    Removing n32g45x_adc.o(i.ADC_EnableTempSensorVrefint), (44 bytes).
    Removing n32g45x_adc.o(i.ADC_GetDualModeConversionDat), (52 bytes).
    Removing n32g45x_adc.o(i.ADC_GetInjectedConversionDat), (16 bytes).
    Removing n32g45x_adc.o(i.ADC_GetIntStatus), (28 bytes).
    Removing n32g45x_adc.o(i.ADC_GetSoftwareStartConvStatus), (16 bytes).
    Removing n32g45x_adc.o(i.ADC_GetSoftwareStartInjectedConvCmdStatus), (16 bytes).
    Removing n32g45x_adc.o(i.ADC_InitEx), (160 bytes).
    Removing n32g45x_adc.o(i.ADC_InitStruct), (18 bytes).
    Removing n32g45x_adc.o(i.ADC_PLL_Clock_Mode_Config), (10 bytes).
    Removing n32g45x_adc.o(i.ADC_SetBypassCalibration), (18 bytes).
    Removing n32g45x_adc.o(i.ADC_SetConvResultBitNum), (12 bytes).
    Removing n32g45x_adc.o(i.ADC_SetDifChs), (4 bytes).
    Removing n32g45x_adc.o(i.ADC_SetInjectedOffsetDat), (12 bytes).
    Removing n32g45x_exti.o(.rev16_text), (4 bytes).
    Removing n32g45x_exti.o(.revsh_text), (4 bytes).
    Removing n32g45x_exti.o(.rrx_text), (6 bytes).
    Removing n32g45x_exti.o(i.EXTI_ClrStatusFlag), (12 bytes).
    Removing n32g45x_exti.o(i.EXTI_DeInit), (40 bytes).
    Removing n32g45x_exti.o(i.EXTI_GetStatusFlag), (20 bytes).
    Removing n32g45x_exti.o(i.EXTI_InitPeripheral), (144 bytes).
    Removing n32g45x_exti.o(i.EXTI_InitStruct), (14 bytes).
    Removing n32g45x_exti.o(i.EXTI_RTCTimeStampSel), (24 bytes).
    Removing n32g45x_exti.o(i.EXTI_TriggerSWInt), (16 bytes).
    Removing n32g45x_iwdg.o(.rev16_text), (4 bytes).
    Removing n32g45x_iwdg.o(.revsh_text), (4 bytes).
    Removing n32g45x_iwdg.o(.rrx_text), (6 bytes).
    Removing n32g45x_iwdg.o(i.IWDG_CntReload), (12 bytes).
    Removing n32g45x_iwdg.o(i.IWDG_Enable), (16 bytes).
    Removing n32g45x_iwdg.o(i.IWDG_GetStatus), (20 bytes).
    Removing application.o(.rev16_text), (4 bytes).
    Removing application.o(.revsh_text), (4 bytes).
    Removing application.o(.rrx_text), (6 bytes).
    Removing main.o(.rev16_text), (4 bytes).
    Removing main.o(.revsh_text), (4 bytes).
    Removing main.o(.rrx_text), (6 bytes).
    Removing main.o(i.rtthread_startup), (56 bytes).
    Removing n32g45x_it.o(.rev16_text), (4 bytes).
    Removing n32g45x_it.o(.revsh_text), (4 bytes).
    Removing n32g45x_it.o(.rrx_text), (6 bytes).
    Removing charger.o(.rev16_text), (4 bytes).
    Removing charger.o(.revsh_text), (4 bytes).
    Removing charger.o(.rrx_text), (6 bytes).
    Removing charger.o(i.RGB_SetDuty), (12 bytes).
    Removing clock.o(i.rt_system_tick_init), (2 bytes).
    Removing clock.o(i.rt_tick_from_millisecond), (52 bytes).
    Removing clock.o(i.rt_tick_set), (24 bytes).
    Removing components.o(.rev16_text), (4 bytes).
    Removing components.o(.revsh_text), (4 bytes).
    Removing components.o(.rrx_text), (6 bytes).
    Removing components.o(i.rt_components_board_init), (32 bytes).
    Removing components.o(i.rt_components_init), (32 bytes).
    Removing device.o(i.rt_device_close), (58 bytes).
    Removing device.o(i.rt_device_control), (14 bytes).
    Removing device.o(i.rt_device_create), (34 bytes).
    Removing device.o(i.rt_device_destroy), (18 bytes).
    Removing device.o(i.rt_device_find), (94 bytes).
    Removing device.o(i.rt_device_init), (44 bytes).
    Removing device.o(i.rt_device_init_all), (4 bytes).
    Removing device.o(i.rt_device_open), (110 bytes).
    Removing device.o(i.rt_device_read), (52 bytes).
    Removing device.o(i.rt_device_register), (140 bytes).
    Removing device.o(i.rt_device_set_rx_indicate), (6 bytes).
    Removing device.o(i.rt_device_set_tx_complete), (6 bytes).
    Removing device.o(i.rt_device_unregister), (10 bytes).
    Removing device.o(i.rt_device_write), (52 bytes).
    Removing idle.o(i.rt_thread_idle_excute), (144 bytes).
    Removing idle.o(i.rt_thread_idle_gethandler), (8 bytes).
    Removing ipc.o(i.rt_sem_control), (90 bytes).
    Removing ipc.o(i.rt_sem_create), (34 bytes).
    Removing ipc.o(i.rt_sem_delete), (64 bytes).
    Removing ipc.o(i.rt_sem_detach), (64 bytes).
    Removing ipc.o(i.rt_sem_trytake), (6 bytes).
    Removing irq.o(i.rt_interrupt_get_nest), (24 bytes).
    Removing kservice.o(i._rt_errno), (28 bytes).
    Removing kservice.o(i.print_number), (456 bytes).
    Removing kservice.o(i.rt_free_align), (8 bytes).
    Removing kservice.o(i.rt_get_errno), (32 bytes).
    Removing kservice.o(i.rt_malloc_align), (52 bytes).
    Removing kservice.o(i.rt_memcmp), (68 bytes).
    Removing kservice.o(i.rt_memcpy), (114 bytes).
    Removing kservice.o(i.rt_memmove), (114 bytes).
    Removing kservice.o(i.rt_set_errno), (32 bytes).
    Removing kservice.o(i.rt_show_version), (2 bytes).
    Removing kservice.o(i.rt_snprintf), (18 bytes).
    Removing kservice.o(i.rt_sprintf), (22 bytes).
    Removing kservice.o(i.rt_strcasecmp), (44 bytes).
    Removing kservice.o(i.rt_strcmp), (24 bytes).
    Removing kservice.o(i.rt_strdup), (136 bytes).
    Removing kservice.o(i.rt_strlen), (16 bytes).
    Removing kservice.o(i.rt_strncmp), (38 bytes).
    Removing kservice.o(i.rt_strnlen), (22 bytes).
    Removing kservice.o(i.rt_strstr), (148 bytes).
    Removing kservice.o(i.rt_vsnprintf), (888 bytes).
    Removing kservice.o(i.rt_vsprintf), (12 bytes).
    Removing kservice.o(.data), (4 bytes).
    Removing mem.o(i.rt_calloc), (26 bytes).
    Removing mem.o(i.rt_memory_info), (36 bytes).
    Removing mem.o(i.rt_realloc), (308 bytes).
    Removing memheap.o(i.rt_memheap_alloc), (256 bytes).
    Removing memheap.o(i.rt_memheap_detach), (20 bytes).
    Removing memheap.o(i.rt_memheap_free), (160 bytes).
    Removing memheap.o(i.rt_memheap_init), (148 bytes).
    Removing memheap.o(i.rt_memheap_realloc), (408 bytes).
    Removing object.o(i.rt_object_allocate), (88 bytes).
    Removing object.o(i.rt_object_find), (82 bytes).
    Removing object.o(i.rt_object_get_type), (8 bytes).
    Removing object.o(i.rt_system_object_init), (2 bytes).
    Removing scheduler.o(i.rt_critical_level), (12 bytes).
    Removing thread.o(i.rt_thread_control), (248 bytes).
    Removing thread.o(i.rt_thread_create), (164 bytes).
    Removing thread.o(i.rt_thread_delay_until), (164 bytes).
    Removing thread.o(i.rt_thread_delete), (72 bytes).
    Removing thread.o(i.rt_thread_detach), (96 bytes).
    Removing thread.o(i.rt_thread_find), (96 bytes).
    Removing thread.o(i.rt_thread_mdelay), (124 bytes).
    Removing thread.o(i.rt_thread_sleep), (116 bytes).
    Removing timer.o(i.rt_timer_create), (56 bytes).
    Removing timer.o(i.rt_timer_delete), (42 bytes).
    Removing timer.o(i.rt_timer_next_timeout_tick), (24 bytes).
    Removing cpuport.o(i.rt_hw_cpu_reset), (16 bytes).
    Removing cpuport.o(i.rt_hw_cpu_shutdown), (2 bytes).
    Removing cpuport.o(i.rt_hw_exception_install), (12 bytes).
    Removing bsp.o(.rev16_text), (4 bytes).
    Removing bsp.o(.revsh_text), (4 bytes).
    Removing bsp.o(.rrx_text), (6 bytes).
    Removing bsp.o(i.NVIC_Configuration), (2 bytes).
    Removing bsp.o(i.print_rcc_freq_info), (14 bytes).
    Removing led.o(.rev16_text), (4 bytes).
    Removing led.o(.revsh_text), (4 bytes).
    Removing led.o(.rrx_text), (6 bytes).
    Removing led.o(i.ExioInit), (188 bytes).
    Removing led.o(i.LedInit), (154 bytes).
    Removing led.o(i.UltrasonicInit), (120 bytes).
    Removing user_can.o(.rev16_text), (4 bytes).
    Removing user_can.o(.revsh_text), (4 bytes).
    Removing user_can.o(.rrx_text), (6 bytes).
    Removing user_can.o(i.CAN1_Filter_Init), (68 bytes).
    Removing user_can.o(i.CAN2_Filter_Init), (68 bytes).
    Removing user_can.o(i.CAN_GPIO_Config), (124 bytes).
    Removing user_can.o(i.CAN_NVIC_Config), (58 bytes).
    Removing user_can.o(i.CAN_PDOSend), (160 bytes).
    Removing user_can.o(i.CAN_PDOSendFor8015D), (92 bytes).
    Removing user_can.o(i.CAN_SDOSend), (160 bytes).
    Removing user_can.o(i.DevCANOpen_send_sdo), (100 bytes).
    Removing user_can.o(i.PointFramCereat), (52 bytes).
    Removing user_can.o(i.Reset_Driver), (108 bytes).
    Removing user_can.o(i.Save_EEPROM), (108 bytes).
    Removing user_can.o(.data), (4 bytes).
    Removing user_can.o(.data), (4 bytes).
    Removing user_can.o(.data), (4 bytes).
    Removing user_can.o(.data), (4 bytes).
    Removing can.o(i.cantimeout), (44 bytes).
    Removing can.o(i.rt_can_close), (152 bytes).
    Removing can.o(i.rt_can_control), (286 bytes).
    Removing can.o(i.rt_can_init), (30 bytes).
    Removing can.o(i.rt_can_open), (392 bytes).
    Removing can.o(i.rt_can_read), (142 bytes).
    Removing can.o(i.rt_can_write), (472 bytes).
    Removing can.o(i.rt_hw_can_isr), (326 bytes).
    Removing can.o(i.rt_hw_can_register), (148 bytes).
    Removing usartx.o(.rev16_text), (4 bytes).
    Removing usartx.o(.revsh_text), (4 bytes).
    Removing usartx.o(.rrx_text), (6 bytes).
    Removing usartx.o(i.Check_Sum), (56 bytes).
    Removing usartx.o(i.DMA1_Channel2_nvic_config), (32 bytes).
    Removing usartx.o(i.DMA1_Channel4_nvic_config), (32 bytes).
    Removing usartx.o(i.GPIO_Configuration), (60 bytes).
    Removing usartx.o(i.Modbus_Respond), (32 bytes).
    Removing usartx.o(i.Printf_MPU9250_Data), (2 bytes).
    Removing usartx.o(i.RCC_Configuration), (30 bytes).
    Removing usartx.o(i.SBUSDataRefresh), (48 bytes).
    Removing usartx.o(i.Target_Velocity_get), (48 bytes).
    Removing usartx.o(i.XYZ_Target_Speed_transition), (28 bytes).
    Removing usartx.o(i.uart1_nvic_config), (32 bytes).
    Removing usartx.o(i.Uart5_Dma_Config), (116 bytes).
    Removing usartx.o(.data), (1 bytes).
    Removing usartx.o(.data), (4 bytes).
    Removing usartx.o(.data), (4 bytes).
    Removing usartx.o(.data), (4 bytes).
    Removing completion.o(i.rt_completion_done), (60 bytes).
    Removing completion.o(i.rt_completion_init), (26 bytes).
    Removing completion.o(i.rt_completion_wait), (130 bytes).
    Removing user_adc.o(.rev16_text), (4 bytes).
    Removing user_adc.o(.revsh_text), (4 bytes).
    Removing user_adc.o(.rrx_text), (6 bytes).
    Removing user_adc.o(i.ADC_GPIO_Configuration), (84 bytes).
    Removing mb.o(.rev16_text), (4 bytes).
    Removing mb.o(.revsh_text), (4 bytes).
    Removing mb.o(.rrx_text), (6 bytes).
    Removing mb.o(i.FillBuf), (24 bytes).
    Removing mb.o(i.MB_Exception_RSP), (68 bytes).
    Removing mb.o(i.MB_JudgeAddr), (16 bytes).
    Removing mb.o(i.MB_JudgeNum), (84 bytes).
    Removing mb.o(i.SetSysClock_HSI_PLL), (128 bytes).
    Removing mb.o(i.eMBClose), (36 bytes).
    Removing mb.o(i.eMBDisable), (36 bytes).
    Removing mb.o(i.eMBRegisterCB), (120 bytes).
    Removing mb.o(i.isWritableAddr), (10 bytes).
    Removing mb.o(.data), (4 bytes).
    Removing mb.o(.data), (4 bytes).
    Removing portevent.o(.rev16_text), (4 bytes).
    Removing portevent.o(.revsh_text), (4 bytes).
    Removing portevent.o(.rrx_text), (6 bytes).
    Removing portserial.o(.rev16_text), (4 bytes).
    Removing portserial.o(.revsh_text), (4 bytes).
    Removing portserial.o(.rrx_text), (6 bytes).
    Removing portserial.o(i.xMBPortSerialInit), (4 bytes).
    Removing porttimer.o(.rev16_text), (4 bytes).
    Removing porttimer.o(.revsh_text), (4 bytes).
    Removing porttimer.o(.rrx_text), (6 bytes).
    Removing mbcrc.o(.rev16_text), (4 bytes).
    Removing mbcrc.o(.revsh_text), (4 bytes).
    Removing mbcrc.o(.rrx_text), (6 bytes).
    Removing mbrtu.o(.rev16_text), (4 bytes).
    Removing mbrtu.o(.revsh_text), (4 bytes).
    Removing mbrtu.o(.rrx_text), (6 bytes).
    Removing mbfunccoils.o(.rev16_text), (4 bytes).
    Removing mbfunccoils.o(.revsh_text), (4 bytes).
    Removing mbfunccoils.o(.rrx_text), (6 bytes).
    Removing mbfuncdisc.o(.rev16_text), (4 bytes).
    Removing mbfuncdisc.o(.revsh_text), (4 bytes).
    Removing mbfuncdisc.o(.rrx_text), (6 bytes).
    Removing mbfuncholding.o(.rev16_text), (4 bytes).
    Removing mbfuncholding.o(.revsh_text), (4 bytes).
    Removing mbfuncholding.o(.rrx_text), (6 bytes).
    Removing mbfuncinput.o(.rev16_text), (4 bytes).
    Removing mbfuncinput.o(.revsh_text), (4 bytes).
    Removing mbfuncinput.o(.rrx_text), (6 bytes).
    Removing mbfuncother.o(.rev16_text), (4 bytes).
    Removing mbfuncother.o(.revsh_text), (4 bytes).
    Removing mbfuncother.o(.rrx_text), (6 bytes).
    Removing mbfuncother.o(i.eMBSetSlaveID), (72 bytes).
    Removing mbutils.o(.rev16_text), (4 bytes).
    Removing mbutils.o(.revsh_text), (4 bytes).
    Removing mbutils.o(.rrx_text), (6 bytes).
    Removing mbutils.o(i.xMBUtilGetBits), (36 bytes).
    Removing mbutils.o(i.xMBUtilSetBits), (60 bytes).
    Removing motor.o(i.MotorDataRefresh), (292 bytes).
    Removing motor.o(i.Motor_init_process), (316 bytes).
    Removing motor.o(i.New_Servo_Motor_Init), (80 bytes).
    Removing balance.o(.rev16_text), (4 bytes).
    Removing balance.o(.revsh_text), (4 bytes).
    Removing balance.o(.rrx_text), (6 bytes).
    Removing balance.o(i.BatteryThresholdAlarm), (88 bytes).
    Removing balance.o(i.IrDA_Guide), (64 bytes).
    Removing balance.o(i.IrDA_RX_Decode), (140 bytes).
    Removing balance.o(i.IrDA_Send0), (72 bytes).
    Removing balance.o(i.IrDA_Send1), (72 bytes).
    Removing balance.o(i.IrDA_TX_Control), (40 bytes).
    Removing balance.o(i.PowerControl), (140 bytes).
    Removing balance.o(i.Relay_Switch), (84 bytes).
    Removing balance.o(i.Remote_Control), (72 bytes).
    Removing balance.o(i.Ros_Control), (56 bytes).
    Removing balance.o(i.RotateToSpeedVelocity), (16 bytes).
    Removing balance.o(i.SPI1_ReadWriteByte), (152 bytes).
    Removing balance.o(i.Set_MotorVelocity), (144 bytes).
    Removing balance.o(i.Smooth_control), (516 bytes).
    Removing balance.o(i.SpeedVelocityToRotate), (24 bytes).
    Removing balance.o(i.Turn_Off), (68 bytes).
    Removing balance.o(i.UltrasonicProcess), (200 bytes).
    Removing balance.o(i.float_abs), (16 bytes).
    Removing balance.o(i.myabs), (8 bytes).
    Removing balance.o(i.setGPIO), (12 bytes).
    Removing balance.o(i.target_limit_float), (32 bytes).
    Removing balance.o(i.target_limit_int), (16 bytes).
    Removing balance.o(.data), (4 bytes).
    Removing robot_select_init.o(i.Robot_Init), (88 bytes).
    Removing flash_wr.o(.rev16_text), (4 bytes).
    Removing flash_wr.o(.revsh_text), (4 bytes).
    Removing flash_wr.o(.rrx_text), (6 bytes).
    Removing rc_car.o(.rev16_text), (4 bytes).
    Removing rc_car.o(.revsh_text), (4 bytes).
    Removing rc_car.o(.rrx_text), (6 bytes).
    Removing rc_car.o(i.EncodeTimeInit), (144 bytes).
    Removing rc_car.o(i.PWM_SetCompareTIMA_CH2), (16 bytes).
    Removing rc_car.o(i.PWM_SetCompareTIML_CH1), (16 bytes).

516 unused section(s) (total 22315 bytes) removed from the image.

==============================================================================

Image Symbol Table

    Local Symbols

    Symbol Name                              Value     Ov Type        Size  Object(Section)

    ../clib/angel/boardlib.s                 0x00000000   Number         0  boardinit3.o ABSOLUTE
    ../clib/angel/boardlib.s                 0x00000000   Number         0  boardinit1.o ABSOLUTE
    ../clib/angel/boardlib.s                 0x00000000   Number         0  boardinit2.o ABSOLUTE
    ../clib/angel/boardlib.s                 0x00000000   Number         0  boardshut.o ABSOLUTE
    ../clib/angel/dczerorl2.s                0x00000000   Number         0  __dczerorl2.o ABSOLUTE
    ../clib/angel/handlers.s                 0x00000000   Number         0  __scatter_zi.o ABSOLUTE
    ../clib/angel/kernel.s                   0x00000000   Number         0  rtexit2.o ABSOLUTE
    ../clib/angel/kernel.s                   0x00000000   Number         0  __rtentry.o ABSOLUTE
    ../clib/angel/kernel.s                   0x00000000   Number         0  rtexit.o ABSOLUTE
    ../clib/angel/kernel.s                   0x00000000   Number         0  __rtentry2.o ABSOLUTE
    ../clib/angel/kernel.s                   0x00000000   Number         0  __rtentry4.o ABSOLUTE
    ../clib/angel/rt.s                       0x00000000   Number         0  rt_errno_addr_intlibspace.o ABSOLUTE
    ../clib/angel/rt.s                       0x00000000   Number         0  rt_raise.o ABSOLUTE
    ../clib/angel/rt.s                       0x00000000   Number         0  rt_errno_addr.o ABSOLUTE
    ../clib/angel/scatter.s                  0x00000000   Number         0  __scatter.o ABSOLUTE
    ../clib/angel/startup.s                  0x00000000   Number         0  __main.o ABSOLUTE
    ../clib/angel/sys.s                      0x00000000   Number         0  sys_stackheap_outer.o ABSOLUTE
    ../clib/angel/sys.s                      0x00000000   Number         0  libspace.o ABSOLUTE
    ../clib/angel/sys.s                      0x00000000   Number         0  use_no_semi.o ABSOLUTE
    ../clib/angel/sys.s                      0x00000000   Number         0  indicate_semi.o ABSOLUTE
    ../clib/angel/sysapp.c                   0x00000000   Number         0  sys_exit.o ABSOLUTE
    ../clib/angel/sysapp.c                   0x00000000   Number         0  sys_command.o ABSOLUTE
    ../clib/angel/sysapp.c                   0x00000000   Number         0  sys_wrch.o ABSOLUTE
    ../clib/armsys.c                         0x00000000   Number         0  argv_veneer.o ABSOLUTE
    ../clib/armsys.c                         0x00000000   Number         0  argv_veneer.o ABSOLUTE
    ../clib/armsys.c                         0x00000000   Number         0  no_argv.o ABSOLUTE
    ../clib/armsys.c                         0x00000000   Number         0  _get_argv_nomalloc.o ABSOLUTE
    ../clib/fenv.c                           0x00000000   Number         0  _rserrno.o ABSOLUTE
    ../clib/heapalloc.c                      0x00000000   Number         0  hrguard.o ABSOLUTE
    ../clib/heapaux.c                        0x00000000   Number         0  heapauxi.o ABSOLUTE
    ../clib/libinit.s                        0x00000000   Number         0  libinit.o ABSOLUTE
    ../clib/libinit.s                        0x00000000   Number         0  libshutdown2.o ABSOLUTE
    ../clib/libinit.s                        0x00000000   Number         0  libshutdown.o ABSOLUTE
    ../clib/libinit.s                        0x00000000   Number         0  libinit2.o ABSOLUTE
    ../clib/memcpset.s                       0x00000000   Number         0  rt_memclr.o ABSOLUTE
    ../clib/memcpset.s                       0x00000000   Number         0  rt_memclr_w.o ABSOLUTE
    ../clib/memcpset.s                       0x00000000   Number         0  rt_memcpy_w.o ABSOLUTE
    ../clib/memcpset.s                       0x00000000   Number         0  rt_memcpy_v6.o ABSOLUTE
    ../clib/signal.c                         0x00000000   Number         0  __raise.o ABSOLUTE
    ../clib/signal.c                         0x00000000   Number         0  defsig_general.o ABSOLUTE
    ../clib/signal.c                         0x00000000   Number         0  defsig_fpe_inner.o ABSOLUTE
    ../clib/signal.c                         0x00000000   Number         0  defsig_rtred_inner.o ABSOLUTE
    ../clib/signal.c                         0x00000000   Number         0  defsig_pvfn_inner.o ABSOLUTE
    ../clib/signal.c                         0x00000000   Number         0  defsig_cppl_inner.o ABSOLUTE
    ../clib/signal.c                         0x00000000   Number         0  defsig_segv_inner.o ABSOLUTE
    ../clib/signal.c                         0x00000000   Number         0  defsig_other.o ABSOLUTE
    ../clib/signal.c                         0x00000000   Number         0  defsig_abrt_inner.o ABSOLUTE
    ../clib/signal.c                         0x00000000   Number         0  defsig_stak_inner.o ABSOLUTE
    ../clib/signal.c                         0x00000000   Number         0  defsig_rtmem_formal.o ABSOLUTE
    ../clib/signal.c                         0x00000000   Number         0  defsig_rtmem_outer.o ABSOLUTE
    ../clib/signal.c                         0x00000000   Number         0  defsig_exit.o ABSOLUTE
    ../clib/signal.c                         0x00000000   Number         0  defsig_rtmem_inner.o ABSOLUTE
    ../clib/signal.s                         0x00000000   Number         0  defsig.o ABSOLUTE
    ../clib/stdlib.c                         0x00000000   Number         0  exit.o ABSOLUTE
    ../fplib/d2f.s                           0x00000000   Number         0  d2f.o ABSOLUTE
    ../fplib/daddsub.s                       0x00000000   Number         0  daddsub_clz.o ABSOLUTE
    ../fplib/dcmpi.s                         0x00000000   Number         0  dcmpi.o ABSOLUTE
    ../fplib/ddiv.s                          0x00000000   Number         0  ddiv.o ABSOLUTE
    ../fplib/dfix.s                          0x00000000   Number         0  dfix.o ABSOLUTE
    ../fplib/dfixu.s                         0x00000000   Number         0  dfixu.o ABSOLUTE
    ../fplib/dflt.s                          0x00000000   Number         0  dflt_clz.o ABSOLUTE
    ../fplib/dleqf.s                         0x00000000   Number         0  dleqf.o ABSOLUTE
    ../fplib/dmul.s                          0x00000000   Number         0  dmul.o ABSOLUTE
    ../fplib/dnaninf.s                       0x00000000   Number         0  dnaninf.o ABSOLUTE
    ../fplib/dretinf.s                       0x00000000   Number         0  dretinf.o ABSOLUTE
    ../fplib/drleqf.s                        0x00000000   Number         0  drleqf.o ABSOLUTE
    ../fplib/f2d.s                           0x00000000   Number         0  f2d.o ABSOLUTE
    ../fplib/fnaninf.s                       0x00000000   Number         0  fnaninf.o ABSOLUTE
    ../fplib/fpinit.s                        0x00000000   Number         0  fpinit.o ABSOLUTE
    ../fplib/fretinf.s                       0x00000000   Number         0  fretinf.o ABSOLUTE
    ../fplib/usenofp.s                       0x00000000   Number         0  usenofp.o ABSOLUTE
    ../mathlib/sqrtf.c                       0x00000000   Number         0  sqrtf.o ABSOLUTE
    ../mathlib/sqrtf.c                       0x00000000   Number         0  sqrtf_x.o ABSOLUTE
    FLASH\FLASH_WR.c                         0x00000000   Number         0  flash_wr.o ABSOLUTE
    FLASH\\FLASH_WR.c                        0x00000000   Number         0  flash_wr.o ABSOLUTE
    app\BALANCE\balance.c                    0x00000000   Number         0  balance.o ABSOLUTE
    app\BALANCE\robot_select_init.c          0x00000000   Number         0  robot_select_init.o ABSOLUTE
    app\Charger\Charger.c                    0x00000000   Number         0  charger.o ABSOLUTE
    app\MODBUS\functions\mbfunccoils.c       0x00000000   Number         0  mbfunccoils.o ABSOLUTE
    app\MODBUS\functions\mbfuncdiag.c        0x00000000   Number         0  mbfuncdiag.o ABSOLUTE
    app\MODBUS\functions\mbfuncdisc.c        0x00000000   Number         0  mbfuncdisc.o ABSOLUTE
    app\MODBUS\functions\mbfuncholding.c     0x00000000   Number         0  mbfuncholding.o ABSOLUTE
    app\MODBUS\functions\mbfuncinput.c       0x00000000   Number         0  mbfuncinput.o ABSOLUTE
    app\MODBUS\functions\mbfuncother.c       0x00000000   Number         0  mbfuncother.o ABSOLUTE
    app\MODBUS\functions\mbutils.c           0x00000000   Number         0  mbutils.o ABSOLUTE
    app\MODBUS\mb.c                          0x00000000   Number         0  mb.o ABSOLUTE
    app\MODBUS\portevent.c                   0x00000000   Number         0  portevent.o ABSOLUTE
    app\MODBUS\portserial.c                  0x00000000   Number         0  portserial.o ABSOLUTE
    app\MODBUS\porttimer.c                   0x00000000   Number         0  porttimer.o ABSOLUTE
    app\MODBUS\rtu\mbcrc.c                   0x00000000   Number         0  mbcrc.o ABSOLUTE
    app\MODBUS\rtu\mbrtu.c                   0x00000000   Number         0  mbrtu.o ABSOLUTE
    app\MOTOR\motor.c                        0x00000000   Number         0  motor.o ABSOLUTE
    app\RCCAR\rc_car.c                       0x00000000   Number         0  rc_car.o ABSOLUTE
    app\\BALANCE\\balance.c                  0x00000000   Number         0  balance.o ABSOLUTE
    app\\Charger\\Charger.c                  0x00000000   Number         0  charger.o ABSOLUTE
    app\\MODBUS\\functions\\mbfunccoils.c    0x00000000   Number         0  mbfunccoils.o ABSOLUTE
    app\\MODBUS\\functions\\mbfuncdisc.c     0x00000000   Number         0  mbfuncdisc.o ABSOLUTE
    app\\MODBUS\\functions\\mbfuncholding.c  0x00000000   Number         0  mbfuncholding.o ABSOLUTE
    app\\MODBUS\\functions\\mbfuncinput.c    0x00000000   Number         0  mbfuncinput.o ABSOLUTE
    app\\MODBUS\\functions\\mbfuncother.c    0x00000000   Number         0  mbfuncother.o ABSOLUTE
    app\\MODBUS\\functions\\mbutils.c        0x00000000   Number         0  mbutils.o ABSOLUTE
    app\\MODBUS\\mb.c                        0x00000000   Number         0  mb.o ABSOLUTE
    app\\MODBUS\\portevent.c                 0x00000000   Number         0  portevent.o ABSOLUTE
    app\\MODBUS\\portserial.c                0x00000000   Number         0  portserial.o ABSOLUTE
    app\\MODBUS\\porttimer.c                 0x00000000   Number         0  porttimer.o ABSOLUTE
    app\\MODBUS\\rtu\\mbcrc.c                0x00000000   Number         0  mbcrc.o ABSOLUTE
    app\\MODBUS\\rtu\\mbrtu.c                0x00000000   Number         0  mbrtu.o ABSOLUTE
    app\\RCCAR\\rc_car.c                     0x00000000   Number         0  rc_car.o ABSOLUTE
    app\\src\\application.c                  0x00000000   Number         0  application.o ABSOLUTE
    app\\src\\main.c                         0x00000000   Number         0  main.o ABSOLUTE
    app\\src\\n32g45x_it.c                   0x00000000   Number         0  n32g45x_it.o ABSOLUTE
    app\src\application.c                    0x00000000   Number         0  application.o ABSOLUTE
    app\src\main.c                           0x00000000   Number         0  main.o ABSOLUTE
    app\src\n32g45x_it.c                     0x00000000   Number         0  n32g45x_it.o ABSOLUTE
    bsp\DeviceDrivers\adc\src\user_adc.c     0x00000000   Number         0  user_adc.o ABSOLUTE
    bsp\DeviceDrivers\can\src\can.c          0x00000000   Number         0  can.o ABSOLUTE
    bsp\DeviceDrivers\can\src\user_can.c     0x00000000   Number         0  user_can.o ABSOLUTE
    bsp\DeviceDrivers\src\completion.c       0x00000000   Number         0  completion.o ABSOLUTE
    bsp\DeviceDrivers\uart\src\usartx.c      0x00000000   Number         0  usartx.o ABSOLUTE
    bsp\\DeviceDrivers\\adc\\src\\user_adc.c 0x00000000   Number         0  user_adc.o ABSOLUTE
    bsp\\DeviceDrivers\\can\\src\\user_can.c 0x00000000   Number         0  user_can.o ABSOLUTE
    bsp\\DeviceDrivers\\uart\\src\\usartx.c  0x00000000   Number         0  usartx.o ABSOLUTE
    bsp\\src\\bsp.c                          0x00000000   Number         0  bsp.o ABSOLUTE
    bsp\\src\\led.c                          0x00000000   Number         0  led.o ABSOLUTE
    bsp\src\bsp.c                            0x00000000   Number         0  bsp.o ABSOLUTE
    bsp\src\led.c                            0x00000000   Number         0  led.o ABSOLUTE
    bsp\src\log.c                            0x00000000   Number         0  log.o ABSOLUTE
    dc.s                                     0x00000000   Number         0  dc.o ABSOLUTE
    firmware\CMSIS\device\startup\startup_n32g45x.s 0x00000000   Number         0  startup_n32g45x.o ABSOLUTE
    firmware\CMSIS\device\system_n32g45x.c   0x00000000   Number         0  system_n32g45x.o ABSOLUTE
    firmware\\CMSIS\\device\\system_n32g45x.c 0x00000000   Number         0  system_n32g45x.o ABSOLUTE
    firmware\\n32g45x_std_periph_driver\\src\\misc.c 0x00000000   Number         0  misc.o ABSOLUTE
    firmware\\n32g45x_std_periph_driver\\src\\n32g45x_adc.c 0x00000000   Number         0  n32g45x_adc.o ABSOLUTE
    firmware\\n32g45x_std_periph_driver\\src\\n32g45x_can.c 0x00000000   Number         0  n32g45x_can.o ABSOLUTE
    firmware\\n32g45x_std_periph_driver\\src\\n32g45x_dma.c 0x00000000   Number         0  n32g45x_dma.o ABSOLUTE
    firmware\\n32g45x_std_periph_driver\\src\\n32g45x_exti.c 0x00000000   Number         0  n32g45x_exti.o ABSOLUTE
    firmware\\n32g45x_std_periph_driver\\src\\n32g45x_flash.c 0x00000000   Number         0  n32g45x_flash.o ABSOLUTE
    firmware\\n32g45x_std_periph_driver\\src\\n32g45x_gpio.c 0x00000000   Number         0  n32g45x_gpio.o ABSOLUTE
    firmware\\n32g45x_std_periph_driver\\src\\n32g45x_iwdg.c 0x00000000   Number         0  n32g45x_iwdg.o ABSOLUTE
    firmware\\n32g45x_std_periph_driver\\src\\n32g45x_rcc.c 0x00000000   Number         0  n32g45x_rcc.o ABSOLUTE
    firmware\\n32g45x_std_periph_driver\\src\\n32g45x_spi.c 0x00000000   Number         0  n32g45x_spi.o ABSOLUTE
    firmware\\n32g45x_std_periph_driver\\src\\n32g45x_tim.c 0x00000000   Number         0  n32g45x_tim.o ABSOLUTE
    firmware\\n32g45x_std_periph_driver\\src\\n32g45x_usart.c 0x00000000   Number         0  n32g45x_usart.o ABSOLUTE
    firmware\n32g45x_std_periph_driver\src\misc.c 0x00000000   Number         0  misc.o ABSOLUTE
    firmware\n32g45x_std_periph_driver\src\n32g45x_adc.c 0x00000000   Number         0  n32g45x_adc.o ABSOLUTE
    firmware\n32g45x_std_periph_driver\src\n32g45x_can.c 0x00000000   Number         0  n32g45x_can.o ABSOLUTE
    firmware\n32g45x_std_periph_driver\src\n32g45x_dma.c 0x00000000   Number         0  n32g45x_dma.o ABSOLUTE
    firmware\n32g45x_std_periph_driver\src\n32g45x_exti.c 0x00000000   Number         0  n32g45x_exti.o ABSOLUTE
    firmware\n32g45x_std_periph_driver\src\n32g45x_flash.c 0x00000000   Number         0  n32g45x_flash.o ABSOLUTE
    firmware\n32g45x_std_periph_driver\src\n32g45x_gpio.c 0x00000000   Number         0  n32g45x_gpio.o ABSOLUTE
    firmware\n32g45x_std_periph_driver\src\n32g45x_iwdg.c 0x00000000   Number         0  n32g45x_iwdg.o ABSOLUTE
    firmware\n32g45x_std_periph_driver\src\n32g45x_rcc.c 0x00000000   Number         0  n32g45x_rcc.o ABSOLUTE
    firmware\n32g45x_std_periph_driver\src\n32g45x_spi.c 0x00000000   Number         0  n32g45x_spi.o ABSOLUTE
    firmware\n32g45x_std_periph_driver\src\n32g45x_tim.c 0x00000000   Number         0  n32g45x_tim.o ABSOLUTE
    firmware\n32g45x_std_periph_driver\src\n32g45x_usart.c 0x00000000   Number         0  n32g45x_usart.o ABSOLUTE
    rt-thread\\src\\components.c             0x00000000   Number         0  components.o ABSOLUTE
    rt-thread\libcpu\cortex-m4\context_rvds.S 0x00000000   Number         0  context_rvds.o ABSOLUTE
    rt-thread\libcpu\cortex-m4\cpuport.c     0x00000000   Number         0  cpuport.o ABSOLUTE
    rt-thread\src\clock.c                    0x00000000   Number         0  clock.o ABSOLUTE
    rt-thread\src\components.c               0x00000000   Number         0  components.o ABSOLUTE
    rt-thread\src\cpu.c                      0x00000000   Number         0  cpu.o ABSOLUTE
    rt-thread\src\device.c                   0x00000000   Number         0  device.o ABSOLUTE
    rt-thread\src\idle.c                     0x00000000   Number         0  idle.o ABSOLUTE
    rt-thread\src\ipc.c                      0x00000000   Number         0  ipc.o ABSOLUTE
    rt-thread\src\irq.c                      0x00000000   Number         0  irq.o ABSOLUTE
    rt-thread\src\kservice.c                 0x00000000   Number         0  kservice.o ABSOLUTE
    rt-thread\src\mem.c                      0x00000000   Number         0  mem.o ABSOLUTE
    rt-thread\src\memheap.c                  0x00000000   Number         0  memheap.o ABSOLUTE
    rt-thread\src\mempool.c                  0x00000000   Number         0  mempool.o ABSOLUTE
    rt-thread\src\object.c                   0x00000000   Number         0  object.o ABSOLUTE
    rt-thread\src\scheduler.c                0x00000000   Number         0  scheduler.o ABSOLUTE
    rt-thread\src\signal.c                   0x00000000   Number         0  signal.o ABSOLUTE
    rt-thread\src\slab.c                     0x00000000   Number         0  slab.o ABSOLUTE
    rt-thread\src\thread.c                   0x00000000   Number         0  thread.o ABSOLUTE
    rt-thread\src\timer.c                    0x00000000   Number         0  timer.o ABSOLUTE
    RESET                                    0x08000000   Section      408  startup_n32g45x.o(RESET)
    !!!main                                  0x08000198   Section        8  __main.o(!!!main)
    !!!scatter                               0x080001a0   Section       52  __scatter.o(!!!scatter)
    !!dczerorl2                              0x080001d4   Section       90  __dczerorl2.o(!!dczerorl2)
    !!handler_zi                             0x08000230   Section       28  __scatter_zi.o(!!handler_zi)
    .ARM.Collect$$libinit$$00000000          0x0800024c   Section        2  libinit.o(.ARM.Collect$$libinit$$00000000)
    .ARM.Collect$$libinit$$00000001          0x0800024e   Section        4  libinit2.o(.ARM.Collect$$libinit$$00000001)
    .ARM.Collect$$libinit$$00000004          0x08000252   Section        0  libinit2.o(.ARM.Collect$$libinit$$00000004)
    .ARM.Collect$$libinit$$0000000A          0x08000252   Section        0  libinit2.o(.ARM.Collect$$libinit$$0000000A)
    .ARM.Collect$$libinit$$0000000C          0x08000252   Section        0  libinit2.o(.ARM.Collect$$libinit$$0000000C)
    .ARM.Collect$$libinit$$0000000E          0x08000252   Section        0  libinit2.o(.ARM.Collect$$libinit$$0000000E)
    .ARM.Collect$$libinit$$00000011          0x08000252   Section        0  libinit2.o(.ARM.Collect$$libinit$$00000011)
    .ARM.Collect$$libinit$$00000013          0x08000252   Section        0  libinit2.o(.ARM.Collect$$libinit$$00000013)
    .ARM.Collect$$libinit$$00000015          0x08000252   Section        0  libinit2.o(.ARM.Collect$$libinit$$00000015)
    .ARM.Collect$$libinit$$00000017          0x08000252   Section        0  libinit2.o(.ARM.Collect$$libinit$$00000017)
    .ARM.Collect$$libinit$$00000019          0x08000252   Section        0  libinit2.o(.ARM.Collect$$libinit$$00000019)
    .ARM.Collect$$libinit$$0000001B          0x08000252   Section        0  libinit2.o(.ARM.Collect$$libinit$$0000001B)
    .ARM.Collect$$libinit$$0000001D          0x08000252   Section        0  libinit2.o(.ARM.Collect$$libinit$$0000001D)
    .ARM.Collect$$libinit$$0000001F          0x08000252   Section        0  libinit2.o(.ARM.Collect$$libinit$$0000001F)
    .ARM.Collect$$libinit$$00000021          0x08000252   Section        0  libinit2.o(.ARM.Collect$$libinit$$00000021)
    .ARM.Collect$$libinit$$00000023          0x08000252   Section        0  libinit2.o(.ARM.Collect$$libinit$$00000023)
    .ARM.Collect$$libinit$$00000025          0x08000252   Section        0  libinit2.o(.ARM.Collect$$libinit$$00000025)
    .ARM.Collect$$libinit$$0000002C          0x08000252   Section        0  libinit2.o(.ARM.Collect$$libinit$$0000002C)
    .ARM.Collect$$libinit$$0000002E          0x08000252   Section        0  libinit2.o(.ARM.Collect$$libinit$$0000002E)
    .ARM.Collect$$libinit$$00000030          0x08000252   Section        0  libinit2.o(.ARM.Collect$$libinit$$00000030)
    .ARM.Collect$$libinit$$00000032          0x08000252   Section        0  libinit2.o(.ARM.Collect$$libinit$$00000032)
    .ARM.Collect$$libinit$$00000033          0x08000252   Section        2  libinit2.o(.ARM.Collect$$libinit$$00000033)
    .ARM.Collect$$libshutdown$$00000000      0x08000254   Section        2  libshutdown.o(.ARM.Collect$$libshutdown$$00000000)
    .ARM.Collect$$libshutdown$$00000002      0x08000256   Section        0  libshutdown2.o(.ARM.Collect$$libshutdown$$00000002)
    .ARM.Collect$$libshutdown$$00000004      0x08000256   Section        0  libshutdown2.o(.ARM.Collect$$libshutdown$$00000004)
    .ARM.Collect$$libshutdown$$00000006      0x08000256   Section        0  libshutdown2.o(.ARM.Collect$$libshutdown$$00000006)
    .ARM.Collect$$libshutdown$$00000009      0x08000256   Section        0  libshutdown2.o(.ARM.Collect$$libshutdown$$00000009)
    .ARM.Collect$$libshutdown$$0000000C      0x08000256   Section        0  libshutdown2.o(.ARM.Collect$$libshutdown$$0000000C)
    .ARM.Collect$$libshutdown$$0000000E      0x08000256   Section        0  libshutdown2.o(.ARM.Collect$$libshutdown$$0000000E)
    .ARM.Collect$$libshutdown$$00000011      0x08000256   Section        0  libshutdown2.o(.ARM.Collect$$libshutdown$$00000011)
    .ARM.Collect$$libshutdown$$00000012      0x08000256   Section        2  libshutdown2.o(.ARM.Collect$$libshutdown$$00000012)
    .ARM.Collect$$rtentry$$00000000          0x08000258   Section        0  __rtentry.o(.ARM.Collect$$rtentry$$00000000)
    .ARM.Collect$$rtentry$$00000002          0x08000258   Section        0  __rtentry2.o(.ARM.Collect$$rtentry$$00000002)
    .ARM.Collect$$rtentry$$00000004          0x08000258   Section        6  __rtentry4.o(.ARM.Collect$$rtentry$$00000004)
    .ARM.Collect$$rtentry$$00000009          0x0800025e   Section        0  __rtentry2.o(.ARM.Collect$$rtentry$$00000009)
    .ARM.Collect$$rtentry$$0000000A          0x0800025e   Section        4  __rtentry2.o(.ARM.Collect$$rtentry$$0000000A)
    .ARM.Collect$$rtentry$$0000000C          0x08000262   Section        0  __rtentry2.o(.ARM.Collect$$rtentry$$0000000C)
    .ARM.Collect$$rtentry$$0000000D          0x08000262   Section        8  __rtentry2.o(.ARM.Collect$$rtentry$$0000000D)
    .ARM.Collect$$rtexit$$00000000           0x0800026a   Section        2  rtexit.o(.ARM.Collect$$rtexit$$00000000)
    .ARM.Collect$$rtexit$$00000002           0x0800026c   Section        0  rtexit2.o(.ARM.Collect$$rtexit$$00000002)
    .ARM.Collect$$rtexit$$00000003           0x0800026c   Section        4  rtexit2.o(.ARM.Collect$$rtexit$$00000003)
    .ARM.Collect$$rtexit$$00000004           0x08000270   Section        6  rtexit2.o(.ARM.Collect$$rtexit$$00000004)
    .text                                    0x08000278   Section       64  startup_n32g45x.o(.text)
    $v0                                      0x08000278   Number         0  startup_n32g45x.o(.text)
    RESERVE48_IRQHandler                     0x08000293   Thumb Code     0  startup_n32g45x.o(.text)
    .text                                    0x080002b8   Section      308  context_rvds.o(.text)
    $v0                                      0x080002b8   Number         0  context_rvds.o(.text)
    .text                                    0x080003ec   Section      138  rt_memcpy_v6.o(.text)
    .text                                    0x08000476   Section      100  rt_memcpy_w.o(.text)
    .text                                    0x080004da   Section       68  rt_memclr.o(.text)
    .text                                    0x0800051e   Section       78  rt_memclr_w.o(.text)
    .text                                    0x0800056c   Section        0  heapauxi.o(.text)
    .text                                    0x08000572   Section        0  _rserrno.o(.text)
    .text                                    0x08000588   Section        8  rt_errno_addr_intlibspace.o(.text)
    .text                                    0x08000590   Section        8  libspace.o(.text)
    .text                                    0x08000598   Section       74  sys_stackheap_outer.o(.text)
    .text                                    0x080005e2   Section        0  exit.o(.text)
    .text                                    0x080005f4   Section        0  sys_exit.o(.text)
    .text                                    0x08000600   Section        2  use_no_semi.o(.text)
    .text                                    0x08000602   Section        0  indicate_semi.o(.text)
    i.ADC_ClearFlag                          0x08000602   Section        0  n32g45x_adc.o(i.ADC_ClearFlag)
    i.ADC_ConfigClk                          0x0800060c   Section        0  n32g45x_adc.o(i.ADC_ConfigClk)
    i.ADC_ConfigRegularChannel               0x08000690   Section        0  n32g45x_adc.o(i.ADC_ConfigRegularChannel)
    i.ADC_Enable                             0x08000738   Section        0  n32g45x_adc.o(i.ADC_Enable)
    i.ADC_EnableSoftwareStartConv            0x08000754   Section        0  n32g45x_adc.o(i.ADC_EnableSoftwareStartConv)
    i.ADC_GetCalibrationStatus               0x08000766   Section        0  n32g45x_adc.o(i.ADC_GetCalibrationStatus)
    i.ADC_GetDat                             0x0800077e   Section        0  n32g45x_adc.o(i.ADC_GetDat)
    i.ADC_GetData                            0x08000784   Section        0  user_adc.o(i.ADC_GetData)
    i.ADC_GetFlagStatus                      0x080007e6   Section        0  n32g45x_adc.o(i.ADC_GetFlagStatus)
    i.ADC_GetFlagStatusNew                   0x080007f4   Section        0  n32g45x_adc.o(i.ADC_GetFlagStatusNew)
    i.ADC_Init                               0x08000804   Section        0  n32g45x_adc.o(i.ADC_Init)
    i.ADC_Initial                            0x08000854   Section        0  user_adc.o(i.ADC_Initial)
    i.ADC_StartCalibration                   0x080008a4   Section        0  n32g45x_adc.o(i.ADC_StartCalibration)
    i.ADC_task                               0x080008bc   Section        0  user_adc.o(i.ADC_task)
    i.Abs_int                                0x08000a04   Section        0  usartx.o(i.Abs_int)
    i.Adc_Init                               0x08000a0c   Section        0  user_adc.o(i.Adc_Init)
    i.Balance_task                           0x08000aa8   Section        0  balance.o(i.Balance_task)
    i.BatteryInfoInit                        0x08001188   Section        0  balance.o(i.BatteryInfoInit)
    i.BatteryInformation                     0x08001200   Section        0  balance.o(i.BatteryInformation)
    i.BusFault_Handler                       0x08001428   Section        0  n32g45x_it.o(i.BusFault_Handler)
    i.CAN1_InitFilter                        0x0800142c   Section        0  n32g45x_can.o(i.CAN1_InitFilter)
    i.CAN2_InitFilter                        0x0800151c   Section        0  n32g45x_can.o(i.CAN2_InitFilter)
    i.CAN2_RX0_IRQHandler                    0x0800160c   Section        0  user_can.o(i.CAN2_RX0_IRQHandler)
    i.CAN_ClearFlag                          0x08001628   Section        0  n32g45x_can.o(i.CAN_ClearFlag)
    i.CAN_Config                             0x0800165c   Section        0  user_can.o(i.CAN_Config)
    i.CAN_DeInit                             0x08001758   Section        0  n32g45x_can.o(i.CAN_DeInit)
    i.CAN_INTConfig                          0x08001792   Section        0  n32g45x_can.o(i.CAN_INTConfig)
    i.CAN_Init                               0x080017a4   Section        0  n32g45x_can.o(i.CAN_Init)
    i.CAN_InitStruct                         0x08001898   Section        0  n32g45x_can.o(i.CAN_InitStruct)
    i.CAN_ReceiveMessage                     0x080018b8   Section        0  n32g45x_can.o(i.CAN_ReceiveMessage)
    i.CAN_TransmitMessage                    0x0800196c   Section        0  n32g45x_can.o(i.CAN_TransmitMessage)
    i.CanIRQProcess                          0x08001a54   Section        0  user_can.o(i.CanIRQProcess)
    i.CanIRQProcessFor8015D                  0x08001c04   Section        0  user_can.o(i.CanIRQProcessFor8015D)
    i.Can_Driver_Init                        0x08001c98   Section        0  user_can.o(i.Can_Driver_Init)
    i.Can_task                               0x08001d54   Section        0  user_can.o(i.Can_task)
    i.Car_Light_Control                      0x08001ec4   Section        0  balance.o(i.Car_Light_Control)
    i.ChargeDetection_Init                   0x0800214c   Section        0  charger.o(i.ChargeDetection_Init)
    i.ConfigTI2                              0x080021a0   Section        0  n32g45x_tim.o(i.ConfigTI2)
    ConfigTI2                                0x080021a1   Thumb Code   122  n32g45x_tim.o(i.ConfigTI2)
    i.DATA_task                              0x0800221c   Section        0  usartx.o(i.DATA_task)
    i.DMA1_Channel2_IRQHandler               0x08002304   Section        0  usartx.o(i.DMA1_Channel2_IRQHandler)
    i.DMA1_Channel4_IRQHandler               0x0800233c   Section        0  usartx.o(i.DMA1_Channel4_IRQHandler)
    i.DMA2_Channel5_IRQHandler               0x08002378   Section        0  usartx.o(i.DMA2_Channel5_IRQHandler)
    i.DMA_ClrIntPendingBit                   0x080023e0   Section        0  n32g45x_dma.o(i.DMA_ClrIntPendingBit)
    i.DMA_ConfigInt                          0x080023e4   Section        0  n32g45x_dma.o(i.DMA_ConfigInt)
    i.DMA_DeInit                             0x080023f4   Section        0  n32g45x_dma.o(i.DMA_DeInit)
    i.DMA_EnableChannel                      0x08002538   Section        0  n32g45x_dma.o(i.DMA_EnableChannel)
    i.DMA_GetCurrDataCounter                 0x0800254c   Section        0  n32g45x_dma.o(i.DMA_GetCurrDataCounter)
    i.DMA_GetIntStatus                       0x08002552   Section        0  n32g45x_dma.o(i.DMA_GetIntStatus)
    i.DMA_Init                               0x08002560   Section        0  n32g45x_dma.o(i.DMA_Init)
    i.DMA_RequestRemap                       0x080025b2   Section        0  n32g45x_dma.o(i.DMA_RequestRemap)
    i.DMA_SetCurrDataCounter                 0x080025c2   Section        0  n32g45x_dma.o(i.DMA_SetCurrDataCounter)
    i.DMA_StructInit                         0x080025c6   Section        0  n32g45x_dma.o(i.DMA_StructInit)
    i.Data_transition                        0x080025e0   Section        0  usartx.o(i.Data_transition)
    i.DebugMon_Handler                       0x080028e0   Section        0  n32g45x_it.o(i.DebugMon_Handler)
    i.Drive_Motor                            0x080028e4   Section        0  balance.o(i.Drive_Motor)
    i.EXTI4_IRQHandler                       0x08002a48   Section        0  n32g45x_it.o(i.EXTI4_IRQHandler)
    i.EXTI9_5_IRQHandler                     0x08002abc   Section        0  n32g45x_it.o(i.EXTI9_5_IRQHandler)
    i.EXTI_ClrITPendBit                      0x08002b1c   Section        0  n32g45x_exti.o(i.EXTI_ClrITPendBit)
    i.EXTI_GetITStatus                       0x08002b28   Section        0  n32g45x_exti.o(i.EXTI_GetITStatus)
    i.FLASH_ClearFlag                        0x08002b48   Section        0  n32g45x_flash.o(i.FLASH_ClearFlag)
    i.FLASH_EraseOnePage                     0x08002b58   Section        0  n32g45x_flash.o(i.FLASH_EraseOnePage)
    i.FLASH_Lock                             0x08002ba0   Section        0  n32g45x_flash.o(i.FLASH_Lock)
    i.FLASH_PrefetchBufSet                   0x08002bb0   Section        0  n32g45x_flash.o(i.FLASH_PrefetchBufSet)
    i.FLASH_ProgramWord                      0x08002bc8   Section        0  n32g45x_flash.o(i.FLASH_ProgramWord)
    i.FLASH_SetLatency                       0x08002c14   Section        0  n32g45x_flash.o(i.FLASH_SetLatency)
    i.FLASH_Unlock                           0x08002c28   Section        0  n32g45x_flash.o(i.FLASH_Unlock)
    i.FLASH_WaitForLastOpt                   0x08002c40   Section        0  n32g45x_flash.o(i.FLASH_WaitForLastOpt)
    i.FLASH_iCacheCmd                        0x08002cd4   Section        0  n32g45x_flash.o(i.FLASH_iCacheCmd)
    i.GPIO_ConfigPinRemap                    0x08002cec   Section        0  n32g45x_gpio.o(i.GPIO_ConfigPinRemap)
    i.GPIO_DeInit                            0x08002e44   Section        0  n32g45x_gpio.o(i.GPIO_DeInit)
    i.GPIO_InitPeripheral                    0x08002f1c   Section        0  n32g45x_gpio.o(i.GPIO_InitPeripheral)
    i.GPIO_InitStruct                        0x08002fca   Section        0  n32g45x_gpio.o(i.GPIO_InitStruct)
    i.GPIO_ReadInputDataBit                  0x08002fda   Section        0  n32g45x_gpio.o(i.GPIO_ReadInputDataBit)
    i.GPIO_ReadOutputDataBit                 0x08002fe8   Section        0  n32g45x_gpio.o(i.GPIO_ReadOutputDataBit)
    i.GPIO_ResetBits                         0x08002ff6   Section        0  n32g45x_gpio.o(i.GPIO_ResetBits)
    i.GPIO_SetBits                           0x08002ffa   Section        0  n32g45x_gpio.o(i.GPIO_SetBits)
    i.GPIO_WriteBit                          0x08002ffe   Section        0  n32g45x_gpio.o(i.GPIO_WriteBit)
    i.Get_Motor_Velocity                     0x08003008   Section        0  balance.o(i.Get_Motor_Velocity)
    i.IC_Init                                0x080031e8   Section        0  charger.o(i.IC_Init)
    i.IR_RX_Init                             0x08003294   Section        0  charger.o(i.IR_RX_Init)
    i.IWDG_ReloadKey                         0x080032c0   Section        0  n32g45x_iwdg.o(i.IWDG_ReloadKey)
    i.IWDG_SetPrescalerDiv                   0x080032d0   Section        0  n32g45x_iwdg.o(i.IWDG_SetPrescalerDiv)
    i.IWDG_WriteConfig                       0x080032dc   Section        0  n32g45x_iwdg.o(i.IWDG_WriteConfig)
    i.InitTask                               0x080032e8   Section        0  application.o(i.InitTask)
    InitTask                                 0x080032e9   Thumb Code   578  application.o(i.InitTask)
    i.IrDA_ReceiveData                       0x080035ec   Section        0  charger.o(i.IrDA_ReceiveData)
    i.IrDA_SendData                          0x080036a4   Section        0  balance.o(i.IrDA_SendData)
    i.IsSdoEmpty                             0x08003754   Section        0  user_can.o(i.IsSdoEmpty)
    i.JTAG_Set                               0x08003768   Section        0  usartx.o(i.JTAG_Set)
    i.Jump_To_BOOT                           0x08003790   Section        0  mb.o(i.Jump_To_BOOT)
    i.Key_Change_RGB                         0x08003910   Section        0  charger.o(i.Key_Change_RGB)
    i.Key_Init                               0x08003954   Section        0  charger.o(i.Key_Init)
    i.GPIO_Init                               0x0800398c   Section        0  led.o(i.GPIO_Init)
    i.LedBlink                               0x08003b50   Section        0  led.o(i.LedBlink)
    i.LimitSwitch_Init                       0x08003b58   Section        0  charger.o(i.LimitSwitch_Init)
    i.MB_Analyze_Execute                     0x08003b84   Section        0  mb.o(i.MB_Analyze_Execute)
    i.MB_RSP                                 0x08003da4   Section        0  mb.o(i.MB_RSP)
    i.MemManage_Handler                      0x0800411c   Section        0  n32g45x_it.o(i.MemManage_Handler)
    i.Modbus_task                            0x08004120   Section        0  usartx.o(i.Modbus_task)
    i.Motor                             0x08004248   Section        0  motor.o(i.Motor)
    i.Motor_task                        0x080042c8   Section        0  motor.o(i.Motor_task)
    i.Motor_task                             0x08004408   Section        0  motor.o(i.Motor_task)
    i.MyFLASH_ReadByte                       0x08004670   Section        0  flash_wr.o(i.MyFLASH_ReadByte)
    i.MyFLASH_WriteWord                      0x080046a0   Section        0  flash_wr.o(i.MyFLASH_WriteWord)
    i.NMI_Handler                            0x080046f0   Section        0  n32g45x_it.o(i.NMI_Handler)
    i.NMT_Control                            0x080046f2   Section        0  user_can.o(i.NMT_Control)
    i.NVIC_Config                            0x0800470e   Section        0  charger.o(i.NVIC_Config)
    i.NVIC_Init                              0x08004748   Section        0  misc.o(i.NVIC_Init)
    i.NVIC_PriorityGroupConfig               0x080047bc   Section        0  misc.o(i.NVIC_PriorityGroupConfig)
    i.PLAN_PDO_Config                        0x080047d0   Section        0  user_can.o(i.PLAN_PDO_Config)
    i.Pdu_Init                               0x08004880   Section        0  usartx.o(i.Pdu_Init)
    i.RCCAR_Init                             0x08004ab8   Section        0  rc_car.o(i.RCCAR_Init)
    i.RCCAR_Process                          0x08004db8   Section        0  rc_car.o(i.RCCAR_Process)
    i.RCC_ConfigAdc1mClk                     0x08004e70   Section        0  n32g45x_rcc.o(i.RCC_ConfigAdc1mClk)
    i.RCC_ConfigAdcHclk                      0x08004e84   Section        0  n32g45x_rcc.o(i.RCC_ConfigAdcHclk)
    i.RCC_ConfigAdcPllClk                    0x08004e98   Section        0  n32g45x_rcc.o(i.RCC_ConfigAdcPllClk)
    i.RCC_ConfigHclk                         0x08004eb4   Section        0  n32g45x_rcc.o(i.RCC_ConfigHclk)
    i.RCC_ConfigPclk1                        0x08004ec8   Section        0  n32g45x_rcc.o(i.RCC_ConfigPclk1)
    i.RCC_ConfigPclk2                        0x08004edc   Section        0  n32g45x_rcc.o(i.RCC_ConfigPclk2)
    i.RCC_ConfigPll                          0x08004ef0   Section        0  n32g45x_rcc.o(i.RCC_ConfigPll)
    i.RCC_ConfigSysclk                       0x08004f08   Section        0  n32g45x_rcc.o(i.RCC_ConfigSysclk)
    i.RCC_DeInit                             0x08004f1c   Section        0  n32g45x_rcc.o(i.RCC_DeInit)
    i.RCC_EnableAHBPeriphClk                 0x08004f6c   Section        0  n32g45x_rcc.o(i.RCC_EnableAHBPeriphClk)
    i.RCC_EnableAPB1PeriphClk                0x08004f84   Section        0  n32g45x_rcc.o(i.RCC_EnableAPB1PeriphClk)
    i.RCC_EnableAPB1PeriphReset              0x08004f9c   Section        0  n32g45x_rcc.o(i.RCC_EnableAPB1PeriphReset)
    i.RCC_EnableAPB2PeriphClk                0x08004fb4   Section        0  n32g45x_rcc.o(i.RCC_EnableAPB2PeriphClk)
    i.RCC_EnableAPB2PeriphReset              0x08004fcc   Section        0  n32g45x_rcc.o(i.RCC_EnableAPB2PeriphReset)
    i.RCC_EnableHsi                          0x08004fe4   Section        0  n32g45x_rcc.o(i.RCC_EnableHsi)
    i.RCC_EnablePll                          0x08004ff0   Section        0  n32g45x_rcc.o(i.RCC_EnablePll)
    i.RCC_GetClocksFreqValue                 0x08004ffc   Section        0  n32g45x_rcc.o(i.RCC_GetClocksFreqValue)
    i.RCC_GetFlagStatus                      0x080050dc   Section        0  n32g45x_rcc.o(i.RCC_GetFlagStatus)
    i.RCC_GetSysclkSrc                       0x0800510c   Section        0  n32g45x_rcc.o(i.RCC_GetSysclkSrc)
    i.RGB_Init                               0x0800511c   Section        0  charger.o(i.RGB_Init)
    i.RGB_SetValue                           0x080051d0   Section        0  charger.o(i.RGB_SetValue)
    i.RGB_ShowCharged                        0x08005258   Section        0  charger.o(i.RGB_ShowCharged)
    i.RGB_ShowCharging                       0x080052e8   Section        0  charger.o(i.RGB_ShowCharging)
    i.RGB_ShowError                          0x08005378   Section        0  charger.o(i.RGB_ShowError)
    i.Relay_Init                             0x08005408   Section        0  charger.o(i.Relay_Init)
    i.Robot_Select                           0x0800543c   Section        0  robot_select_init.o(i.Robot_Select)
    i.SPI1_IRQHandler                        0x08005518   Section        0  n32g45x_it.o(i.SPI1_IRQHandler)
    i.SPI_Enable                             0x08005554   Section        0  n32g45x_spi.o(i.SPI_Enable)
    i.SPI_I2S_EnableInt                      0x08005566   Section        0  n32g45x_spi.o(i.SPI_I2S_EnableInt)
    i.SPI_I2S_GetStatus                      0x08005580   Section        0  n32g45x_spi.o(i.SPI_I2S_GetStatus)
    i.SPI_Init                               0x0800558e   Section        0  n32g45x_spi.o(i.SPI_Init)
    i.SVC_Handler                            0x080055e2   Section        0  n32g45x_it.o(i.SVC_Handler)
    i.SdoFramCereat                          0x080055e4   Section        0  user_can.o(i.SdoFramCereat)
    i.SetReal_Velocity                       0x08005618   Section        0  usartx.o(i.SetReal_Velocity)
    i.Set_Director                           0x080058b4   Section        0  usartx.o(i.Set_Director)
    i.Soft_Reset                             0x08005a4c   Section        0  application.o(i.Soft_Reset)
    i.SysTick_Handler                        0x08005a52   Section        0  bsp.o(i.SysTick_Handler)
    i.SystemInit                             0x08005a64   Section        0  system_n32g45x.o(i.SystemInit)
    i.TIM1_UP_IRQHandler                     0x08005c00   Section        0  charger.o(i.TIM1_UP_IRQHandler)
    i.TIM3_IRQHandler                        0x08005c90   Section        0  n32g45x_it.o(i.TIM3_IRQHandler)
    i.TIM4_IRQHandler                        0x08005cb4   Section        0  n32g45x_it.o(i.TIM4_IRQHandler)
    i.TIM5_IRQHandler                        0x08005ce0   Section        0  charger.o(i.TIM5_IRQHandler)
    i.TIM_ClearFlag                          0x08005d0c   Section        0  n32g45x_tim.o(i.TIM_ClearFlag)
    i.TIM_ClrIntPendingBit                   0x08005d12   Section        0  n32g45x_tim.o(i.TIM_ClrIntPendingBit)
    i.TIM_ConfigArPreload                    0x08005d18   Section        0  n32g45x_tim.o(i.TIM_ConfigArPreload)
    i.TIM_ConfigEncoderInterface             0x08005d2a   Section        0  n32g45x_tim.o(i.TIM_ConfigEncoderInterface)
    i.TIM_ConfigInt                          0x08005d66   Section        0  n32g45x_tim.o(i.TIM_ConfigInt)
    i.TIM_ConfigOc1Preload                   0x08005d76   Section        0  n32g45x_tim.o(i.TIM_ConfigOc1Preload)
    i.TIM_ConfigOc2Preload                   0x08005d82   Section        0  n32g45x_tim.o(i.TIM_ConfigOc2Preload)
    i.TIM_ConfigOc4Preload                   0x08005d96   Section        0  n32g45x_tim.o(i.TIM_ConfigOc4Preload)
    i.TIM_ConfigPwmIc                        0x08005dac   Section        0  n32g45x_tim.o(i.TIM_ConfigPwmIc)
    i.TIM_DeInit                             0x08005f04   Section        0  n32g45x_tim.o(i.TIM_DeInit)
    i.TIM_Enable                             0x08005ff8   Section        0  n32g45x_tim.o(i.TIM_Enable)
    i.TIM_EnableCtrlPwmOutputs               0x0800600a   Section        0  n32g45x_tim.o(i.TIM_EnableCtrlPwmOutputs)
    i.TIM_GetCap2                            0x08006020   Section        0  n32g45x_tim.o(i.TIM_GetCap2)
    i.TIM_GetCnt                             0x08006024   Section        0  n32g45x_tim.o(i.TIM_GetCnt)
    i.TIM_GetIntStatus                       0x08006028   Section        0  n32g45x_tim.o(i.TIM_GetIntStatus)
    i.TIM_ICInit                             0x08006040   Section        0  n32g45x_tim.o(i.TIM_ICInit)
    i.TIM_InitIcStruct                       0x080061fc   Section        0  n32g45x_tim.o(i.TIM_InitIcStruct)
    i.TIM_InitOc1                            0x0800620c   Section        0  n32g45x_tim.o(i.TIM_InitOc1)
    i.TIM_InitOc2                            0x08006274   Section        0  n32g45x_tim.o(i.TIM_InitOc2)
    i.TIM_InitOc4                            0x080062f0   Section        0  n32g45x_tim.o(i.TIM_InitOc4)
    i.TIM_InitOcStruct                       0x08006352   Section        0  n32g45x_tim.o(i.TIM_InitOcStruct)
    i.TIM_InitTimBaseStruct                  0x08006366   Section        0  n32g45x_tim.o(i.TIM_InitTimBaseStruct)
    i.TIM_InitTimeBase                       0x08006384   Section        0  n32g45x_tim.o(i.TIM_InitTimeBase)
    i.TIM_SelectInputTrig                    0x080064bc   Section        0  n32g45x_tim.o(i.TIM_SelectInputTrig)
    i.TIM_SelectSlaveMode                    0x080064c8   Section        0  n32g45x_tim.o(i.TIM_SelectSlaveMode)
    i.TIM_SetCmp1                            0x080064d8   Section        0  n32g45x_tim.o(i.TIM_SetCmp1)
    i.TIM_SetCmp2                            0x080064dc   Section        0  n32g45x_tim.o(i.TIM_SetCmp2)
    i.TIM_SetCmp4                            0x080064e0   Section        0  n32g45x_tim.o(i.TIM_SetCmp4)
    i.TIM_SetCnt                             0x080064e6   Section        0  n32g45x_tim.o(i.TIM_SetCnt)
    i.Target_Direct_get                      0x080064ec   Section        0  usartx.o(i.Target_Direct_get)
    i.UART4_IRQHandler                       0x0800651c   Section        0  usartx.o(i.UART4_IRQHandler)
    i.UART5_IRQHandler                       0x08006568   Section        0  usartx.o(i.UART5_IRQHandler)
    i.USART1_IRQHandler                      0x08006620   Section        0  usartx.o(i.USART1_IRQHandler)
    i.Usart1_Init                            0x08006668   Section        0  usartx.o(i.Usart1_Init)
    i.USART3_IRQHandler                      0x0800671c   Section        0  usartx.o(i.USART3_IRQHandler)
    i.USART_ClrFlag                          0x08006788   Section        0  n32g45x_usart.o(i.USART_ClrFlag)
    i.USART_ConfigInt                        0x0800678e   Section        0  n32g45x_usart.o(i.USART_ConfigInt)
    i.USART_DeInit                           0x080067be   Section        0  n32g45x_usart.o(i.USART_DeInit)
    i.USART_Enable                           0x080068a2   Section        0  n32g45x_usart.o(i.USART_Enable)
    i.USART_EnableDMA                        0x080068b4   Section        0  n32g45x_usart.o(i.USART_EnableDMA)
    i.USART_GetIntStatus                     0x080068c4   Section        0  n32g45x_usart.o(i.USART_GetIntStatus)
    i.USART_Init                             0x08006910   Section        0  n32g45x_usart.o(i.USART_Init)
    i.USART_ReceiveData                      0x080069c4   Section        0  n32g45x_usart.o(i.USART_ReceiveData)
    i.USB_LP_CAN1_RX0_IRQHandler             0x080069cc   Section        0  user_can.o(i.USB_LP_CAN1_RX0_IRQHandler)
    i.Ultrasonic1_task                       0x080069e8   Section        0  balance.o(i.Ultrasonic1_task)
    i.Ultrasonic2_task                       0x08006b2c   Section        0  balance.o(i.Ultrasonic2_task)
    i.UltrasonicSetEnable                    0x08006c54   Section        0  led.o(i.UltrasonicSetEnable)
    i.Sbus_Data_Parsing                            0x08006c80   Section        0  usartx.o(i.Sbus_Data_Parsing)
    i.UsageFault_Handler                     0x08006da8   Section        0  n32g45x_it.o(i.UsageFault_Handler)
    i.Usart3_Init                            0x08006dac   Section        0  usartx.o(i.Usart3_Init)
    i.Uart4_Init                            0x08006e58   Section        0  usartx.o(i.Uart4_Init)
    i.Uart5_Init                            0x08006f50   Section        0  usartx.o(i.Uart5_Init)
    i.WANZER_PDO_Config                      0x08007088   Section        0  user_can.o(i.WANZER_PDO_Config)
    i.ZLAC8015D_PDO_Config                   0x08007124   Section        0  user_can.o(i.ZLAC8015D_PDO_Config)
    i.ZLAC8015_PDO_Config                    0x080071ac   Section        0  user_can.o(i.ZLAC8015_PDO_Config)
    i.__rt_ffs                               0x08007248   Section        0  kservice.o(i.__rt_ffs)
    i.eMBEnable                              0x08007290   Section        0  mb.o(i.eMBEnable)
    i.eMBFuncReadCoils                       0x080072b4   Section        0  mbfunccoils.o(i.eMBFuncReadCoils)
    i.eMBFuncReadDiscreteInputs              0x08007316   Section        0  mbfuncdisc.o(i.eMBFuncReadDiscreteInputs)
    i.eMBFuncReadHoldingRegister             0x0800737a   Section        0  mbfuncholding.o(i.eMBFuncReadHoldingRegister)
    i.eMBFuncReadInputRegister               0x080073c4   Section        0  mbfuncinput.o(i.eMBFuncReadInputRegister)
    i.eMBFuncReadWriteMultipleHoldingRegister 0x08007414   Section        0  mbfuncholding.o(i.eMBFuncReadWriteMultipleHoldingRegister)
    i.eMBFuncReportSlaveID                   0x08007478   Section        0  mbfuncother.o(i.eMBFuncReportSlaveID)
    i.eMBFuncWriteCoil                       0x0800749c   Section        0  mbfunccoils.o(i.eMBFuncWriteCoil)
    i.eMBFuncWriteHoldingRegister            0x080074c8   Section        0  mbfuncholding.o(i.eMBFuncWriteHoldingRegister)
    i.eMBFuncWriteMultipleCoils              0x080074e0   Section        0  mbfunccoils.o(i.eMBFuncWriteMultipleCoils)
    i.eMBFuncWriteMultipleHoldingRegister    0x08007530   Section        0  mbfuncholding.o(i.eMBFuncWriteMultipleHoldingRegister)
    i.eMBInit                                0x08007570   Section        0  mb.o(i.eMBInit)
    i.eMBPoll                                0x080075ec   Section        0  mb.o(i.eMBPoll)
    i.eMBRTUReceive                          0x080076f4   Section        0  mbrtu.o(i.eMBRTUReceive)
    i.eMBRTUStart                            0x08007758   Section        0  mbrtu.o(i.eMBRTUStart)
    i.eMBRTUStop                             0x08007770   Section        0  mbrtu.o(i.eMBRTUStop)
    i.getPDUData                             0x08007788   Section        0  mb.o(i.getPDUData)
    i.main                                   0x08007790   Section        0  main.o(i.main)
    i.modbus_task_init                       0x080077cc   Section        0  usartx.o(i.modbus_task_init)
    i.prveMBError2Exception                  0x0800783c   Section        0  mbutils.o(i.prveMBError2Exception)
    i.rt_application_init                    0x08007854   Section        0  application.o(i.rt_application_init)
    i.rt_enter_critical                      0x0800789c   Section        0  scheduler.o(i.rt_enter_critical)
    i.rt_exit_critical                       0x080078b8   Section        0  scheduler.o(i.rt_exit_critical)
    i.rt_free                                0x08007944   Section        0  mem.o(i.rt_free)
    i.rt_hw_board_init                       0x080079f0   Section        0  bsp.o(i.rt_hw_board_init)
    i.rt_hw_hard_fault_exception             0x08007a30   Section        0  cpuport.o(i.rt_hw_hard_fault_exception)
    i.rt_hw_stack_init                       0x08007a48   Section        0  cpuport.o(i.rt_hw_stack_init)
    i.rt_interrupt_enter                     0x08007a8c   Section        0  irq.o(i.rt_interrupt_enter)
    i.rt_interrupt_leave                     0x08007aa8   Section        0  irq.o(i.rt_interrupt_leave)
    i.rt_malloc                              0x08007ac4   Section        0  mem.o(i.rt_malloc)
    i.rt_memset                              0x08007bdc   Section        0  kservice.o(i.rt_memset)
    i.rt_object_delete                       0x08007c10   Section        0  object.o(i.rt_object_delete)
    i.rt_object_detach                       0x08007c3e   Section        0  object.o(i.rt_object_detach)
    i.rt_object_get_information              0x08007c6c   Section        0  object.o(i.rt_object_get_information)
    i.rt_object_init                         0x08007cb4   Section        0  object.o(i.rt_object_init)
    i.rt_object_is_systemobject              0x08007d08   Section        0  object.o(i.rt_object_is_systemobject)
    i.rt_schedule                            0x08007d14   Section        0  scheduler.o(i.rt_schedule)
    i.rt_schedule_insert_thread              0x08007d78   Section        0  scheduler.o(i.rt_schedule_insert_thread)
    i.rt_schedule_remove_thread              0x08007dc8   Section        0  scheduler.o(i.rt_schedule_remove_thread)
    i.rt_sem_init                            0x08007e18   Section        0  ipc.o(i.rt_sem_init)
    i.rt_sem_release                         0x08007e38   Section        0  ipc.o(i.rt_sem_release)
    i.rt_sem_take                            0x08007e70   Section        0  ipc.o(i.rt_sem_take)
    i.rt_strncpy                             0x08007f40   Section        0  kservice.o(i.rt_strncpy)
    i.rt_system_heap_init                    0x08007fa4   Section        0  mem.o(i.rt_system_heap_init)
    i.rt_system_scheduler_init               0x0800800c   Section        0  scheduler.o(i.rt_system_scheduler_init)
    i.rt_system_scheduler_start              0x0800804c   Section        0  scheduler.o(i.rt_system_scheduler_start)
    i.rt_system_timer_init                   0x08008074   Section        0  timer.o(i.rt_system_timer_init)
    i.rt_system_timer_thread_init            0x08008080   Section        0  timer.o(i.rt_system_timer_thread_init)
    i.rt_thread_delay                        0x08008084   Section        0  thread.o(i.rt_thread_delay)
    i.rt_thread_exit                         0x080080fc   Section        0  thread.o(i.rt_thread_exit)
    i.rt_thread_idle_entry                   0x0800815c   Section        0  idle.o(i.rt_thread_idle_entry)
    rt_thread_idle_entry                     0x0800815d   Thumb Code   130  idle.o(i.rt_thread_idle_entry)
    i.rt_thread_idle_init                    0x080081e4   Section        0  idle.o(i.rt_thread_idle_init)
    i.rt_thread_init                         0x08008220   Section        0  thread.o(i.rt_thread_init)
    i.rt_thread_resume                       0x080082a8   Section        0  thread.o(i.rt_thread_resume)
    i.rt_thread_self                         0x080082f0   Section        0  thread.o(i.rt_thread_self)
    i.rt_thread_startup                      0x080082fc   Section        0  thread.o(i.rt_thread_startup)
    i.rt_thread_suspend                      0x08008358   Section        0  thread.o(i.rt_thread_suspend)
    i.rt_thread_timeout                      0x0800839c   Section        0  thread.o(i.rt_thread_timeout)
    i.rt_thread_yield                        0x080083c4   Section        0  thread.o(i.rt_thread_yield)
    i.rt_tick_get                            0x08008428   Section        0  clock.o(i.rt_tick_get)
    i.rt_tick_increase                       0x08008434   Section        0  clock.o(i.rt_tick_increase)
    i.rt_timer_check                         0x08008460   Section        0  timer.o(i.rt_timer_check)
    i.rt_timer_control                       0x08008574   Section        0  timer.o(i.rt_timer_control)
    i.rt_timer_detach                        0x080085a6   Section        0  timer.o(i.rt_timer_detach)
    i.rt_timer_init                          0x080085d0   Section        0  timer.o(i.rt_timer_init)
    i.rt_timer_start                         0x08008604   Section        0  timer.o(i.rt_timer_start)
    i.rt_timer_stop                          0x080086b0   Section        0  timer.o(i.rt_timer_stop)
    i.rti_board_end                          0x080086ea   Section        0  components.o(i.rti_board_end)
    rti_board_end                            0x080086eb   Thumb Code     4  components.o(i.rti_board_end)
    i.rti_board_start                        0x080086ee   Section        0  components.o(i.rti_board_start)
    rti_board_start                          0x080086ef   Thumb Code     4  components.o(i.rti_board_start)
    i.rti_end                                0x080086f2   Section        0  components.o(i.rti_end)
    rti_end                                  0x080086f3   Thumb Code     4  components.o(i.rti_end)
    i.rti_start                              0x080086f6   Section        0  components.o(i.rti_start)
    rti_start                                0x080086f7   Thumb Code     4  components.o(i.rti_start)
    i.sqrtf                                  0x080086fa   Section        0  sqrtf.o(i.sqrtf)
    i.uart1_dma_config                       0x08008738   Section        0  usartx.o(i.uart1_dma_config)
    i.uart3_dma_config                       0x08008820   Section        0  usartx.o(i.uart3_dma_config)
    i.Uart4_Dma_Config                       0x08008904   Section        0  usartx.o(i.Uart4_Dma_Config)
    i.usMBCRC16                              0x080089ec   Section        0  mbcrc.o(i.usMBCRC16)
    i.vMBPortSerialEnable                    0x08008a2c   Section        0  portserial.o(i.vMBPortSerialEnable)
    i.xMBPortEventGet                        0x08008a30   Section        0  portevent.o(i.xMBPortEventGet)
    i.xMBPortEventInit                       0x08008a4c   Section        0  portevent.o(i.xMBPortEventInit)
    i.xMBPortEventPost                       0x08008a5c   Section        0  portevent.o(i.xMBPortEventPost)
    i.xMBPortSerialPutByte                   0x08008a6c   Section        0  portserial.o(i.xMBPortSerialPutByte)
    i.xMBRTUReceiveFSM                       0x08008a70   Section        0  mbrtu.o(i.xMBRTUReceiveFSM)
    i.xMBRTUTimerT35Expired                  0x08008aa4   Section        0  mbrtu.o(i.xMBRTUTimerT35Expired)
    i.xMBRTUTransmitFSM                      0x08008acc   Section        0  mbrtu.o(i.xMBRTUTransmitFSM)
    x$fpl$d2f                                0x08008b1c   Section       98  d2f.o(x$fpl$d2f)
    $v0                                      0x08008b1c   Number         0  d2f.o(x$fpl$d2f)
    x$fpl$dadd                               0x08008b80   Section      336  daddsub_clz.o(x$fpl$dadd)
    $v0                                      0x08008b80   Number         0  daddsub_clz.o(x$fpl$dadd)
    _dadd1                                   0x08008b91   Thumb Code     0  daddsub_clz.o(x$fpl$dadd)
    x$fpl$dcmpinf                            0x08008cd0   Section       24  dcmpi.o(x$fpl$dcmpinf)
    $v0                                      0x08008cd0   Number         0  dcmpi.o(x$fpl$dcmpinf)
    x$fpl$ddiv                               0x08008ce8   Section      688  ddiv.o(x$fpl$ddiv)
    $v0                                      0x08008ce8   Number         0  ddiv.o(x$fpl$ddiv)
    ddiv_entry                               0x08008cef   Thumb Code     0  ddiv.o(x$fpl$ddiv)
    x$fpl$dfix                               0x08008f98   Section       94  dfix.o(x$fpl$dfix)
    $v0                                      0x08008f98   Number         0  dfix.o(x$fpl$dfix)
    x$fpl$dfixu                              0x08008ff8   Section       90  dfixu.o(x$fpl$dfixu)
    $v0                                      0x08008ff8   Number         0  dfixu.o(x$fpl$dfixu)
    x$fpl$dflt                               0x08009052   Section       46  dflt_clz.o(x$fpl$dflt)
    $v0                                      0x08009052   Number         0  dflt_clz.o(x$fpl$dflt)
    x$fpl$dfltu                              0x08009080   Section       38  dflt_clz.o(x$fpl$dfltu)
    $v0                                      0x08009080   Number         0  dflt_clz.o(x$fpl$dfltu)
    x$fpl$dleqf                              0x080090a8   Section      120  dleqf.o(x$fpl$dleqf)
    $v0                                      0x080090a8   Number         0  dleqf.o(x$fpl$dleqf)
    x$fpl$dmul                               0x08009120   Section      340  dmul.o(x$fpl$dmul)
    $v0                                      0x08009120   Number         0  dmul.o(x$fpl$dmul)
    x$fpl$dnaninf                            0x08009274   Section      156  dnaninf.o(x$fpl$dnaninf)
    $v0                                      0x08009274   Number         0  dnaninf.o(x$fpl$dnaninf)
    x$fpl$dretinf                            0x08009310   Section       12  dretinf.o(x$fpl$dretinf)
    $v0                                      0x08009310   Number         0  dretinf.o(x$fpl$dretinf)
    x$fpl$drleqf                             0x0800931c   Section      108  drleqf.o(x$fpl$drleqf)
    $v0                                      0x0800931c   Number         0  drleqf.o(x$fpl$drleqf)
    x$fpl$dsub                               0x08009388   Section      468  daddsub_clz.o(x$fpl$dsub)
    $v0                                      0x08009388   Number         0  daddsub_clz.o(x$fpl$dsub)
    _dsub1                                   0x08009399   Thumb Code     0  daddsub_clz.o(x$fpl$dsub)
    x$fpl$f2d                                0x0800955c   Section       86  f2d.o(x$fpl$f2d)
    $v0                                      0x0800955c   Number         0  f2d.o(x$fpl$f2d)
    x$fpl$fnaninf                            0x080095b2   Section      140  fnaninf.o(x$fpl$fnaninf)
    $v0                                      0x080095b2   Number         0  fnaninf.o(x$fpl$fnaninf)
    x$fpl$fpinit                             0x0800963e   Section       10  fpinit.o(x$fpl$fpinit)
    $v0                                      0x0800963e   Number         0  fpinit.o(x$fpl$fpinit)
    x$fpl$fretinf                            0x08009648   Section       10  fretinf.o(x$fpl$fretinf)
    $v0                                      0x08009648   Number         0  fretinf.o(x$fpl$fretinf)
    .constdata                               0x08009652   Section       64  n32g45x_rcc.o(.constdata)
    x$fpl$usenofp                            0x08009652   Section        0  usenofp.o(x$fpl$usenofp)
    s_ApbAhbPresTable                        0x08009652   Data          16  n32g45x_rcc.o(.constdata)
    s_AdcHclkPresTable                       0x08009662   Data          16  n32g45x_rcc.o(.constdata)
    s_AdcPllClkPresTable                     0x08009672   Data          32  n32g45x_rcc.o(.constdata)
    .constdata                               0x08009692   Section      290  kservice.o(.constdata)
    small_digits                             0x08009792   Data          17  kservice.o(.constdata)
    large_digits                             0x080097a3   Data          17  kservice.o(.constdata)
    .constdata                               0x080097b4   Section      720  user_can.o(.constdata)
    .constdata                               0x08009a84   Section       44  user_adc.o(.constdata)
    .constdata                               0x08009ab0   Section      512  mbcrc.o(.constdata)
    aucCRCHi                                 0x08009ab0   Data         256  mbcrc.o(.constdata)
    aucCRCLo                                 0x08009bb0   Data         256  mbcrc.o(.constdata)
    .rti_fn.0                                0x08009cb0   Section        4  components.o(.rti_fn.0)
    __tagsym$$used                           0x08009cb0   Number         0  components.o(.rti_fn.0)
    .rti_fn.0.end                            0x08009cb4   Section        4  components.o(.rti_fn.0.end)
    __tagsym$$used                           0x08009cb4   Number         0  components.o(.rti_fn.0.end)
    .rti_fn.1.end                            0x08009cb8   Section        4  components.o(.rti_fn.1.end)
    __tagsym$$used                           0x08009cb8   Number         0  components.o(.rti_fn.1.end)
    .rti_fn.6.end                            0x08009cbc   Section        4  components.o(.rti_fn.6.end)
    __tagsym$$used                           0x08009cbc   Number         0  components.o(.rti_fn.6.end)
    .data                                    0x20000000   Section        4  system_n32g45x.o(.data)
    .data                                    0x20000004   Section        4  application.o(.data)
    .data                                    0x20000008   Section        4  application.o(.data)
    .data                                    0x2000000c   Section        4  application.o(.data)
    .data                                    0x20000010   Section        4  application.o(.data)
    .data                                    0x20000014   Section        1  application.o(.data)
    .data                                    0x20000015   Section        1  application.o(.data)
    .data                                    0x20000016   Section        1  application.o(.data)
    .data                                    0x20000017   Section        1  application.o(.data)
    .data                                    0x20000018   Section        1  application.o(.data)
    .data                                    0x2000001c   Section       20  application.o(.data)
    .data                                    0x20000030   Section      336  charger.o(.data)
    ReceiveData                              0x20000034   Data           1  charger.o(.data)
    temp                                     0x20000035   Data           1  charger.o(.data)
    NoSignalCout                             0x20000038   Data           2  charger.o(.data)
    delay_i                                  0x2000004c   Data           4  charger.o(.data)
    delay_i                                  0x20000050   Data           4  charger.o(.data)
    delay_i                                  0x20000054   Data           4  charger.o(.data)
    Reset_i                                  0x20000058   Data           4  charger.o(.data)
    RGB_chips                                0x2000005c   Data           4  charger.o(.data)
    .data                                    0x20000180   Section        4  clock.o(.data)
    rt_tick                                  0x20000180   Data           4  clock.o(.data)
    .data                                    0x20000184   Section        1  irq.o(.data)
    .data                                    0x20000188   Section       24  mem.o(.data)
    heap_ptr                                 0x20000188   Data           4  mem.o(.data)
    heap_end                                 0x2000018c   Data           4  mem.o(.data)
    lfree                                    0x20000190   Data           4  mem.o(.data)
    mem_size_aligned                         0x20000194   Data           4  mem.o(.data)
    used_mem                                 0x20000198   Data           4  mem.o(.data)
    max_mem                                  0x2000019c   Data           4  mem.o(.data)
    .data                                    0x200001a0   Section       80  object.o(.data)
    rt_object_container                      0x200001a0   Data          80  object.o(.data)
    .data                                    0x200001f0   Section       20  scheduler.o(.data)
    rt_scheduler_lock_nest                   0x200001f2   Data           2  scheduler.o(.data)
    .data                                    0x20000204   Section       12  timer.o(.data)
    random_nr                                0x20000204   Data           4  timer.o(.data)
    rt_timer_list                            0x20000208   Data           8  timer.o(.data)
    .data                                    0x20000210   Section        4  cpuport.o(.data)
    rt_exception_hook                        0x20000210   Data           4  cpuport.o(.data)
    .data                                    0x20000214   Section        4  cpuport.o(.data)
    .data                                    0x20000218   Section        4  cpuport.o(.data)
    .data                                    0x2000021c   Section        4  cpuport.o(.data)
    .data                                    0x20000220   Section       12  user_can.o(.data)
    sdo_head                                 0x20000220   Data           4  user_can.o(.data)
    point_data_head                          0x20000228   Data           4  user_can.o(.data)
    .data                                    0x2000022c   Section       68  usartx.o(.data)
    pdu                                      0x2000026c   Data           4  usartx.o(.data)
    .data                                    0x20000270   Section        1  usartx.o(.data)
    .data                                    0x20000274   Section      168  mb.o(.data)
    eMBState                                 0x20000274   Data           1  mb.o(.data)
    ucRcvAddress                             0x20000275   Data           1  mb.o(.data)
    ucMBAddress                              0x20000276   Data           1  mb.o(.data)
    usLength                                 0x20000278   Data           2  mb.o(.data)
    ucMBFrame                                0x2000027c   Data           4  mb.o(.data)
    pvMBFrameStartCur                        0x20000280   Data           4  mb.o(.data)
    pvMBFrameStopCur                         0x20000284   Data           4  mb.o(.data)
    peMBFrameReceiveCur                      0x20000288   Data           4  mb.o(.data)
    pvMBFrameCloseCur                        0x2000028c   Data           4  mb.o(.data)
    xFuncHandlers                            0x2000029c   Data         128  mb.o(.data)
    .data                                    0x2000031c   Section        2  portevent.o(.data)
    eQueuedEvent                             0x2000031c   Data           1  portevent.o(.data)
    xEventInQueue                            0x2000031d   Data           1  portevent.o(.data)
    .data                                    0x20000320   Section       12  mbrtu.o(.data)
    eSndState                                0x20000320   Data           1  mbrtu.o(.data)
    eRcvState                                0x20000321   Data           1  mbrtu.o(.data)
    usSndBufferCount                         0x20000322   Data           2  mbrtu.o(.data)
    pucSndBufferCur                          0x20000328   Data           4  mbrtu.o(.data)
    .data                                    0x2000032c   Section        2  mbfuncother.o(.data)
    usMBSlaveIDLen                           0x2000032c   Data           2  mbfuncother.o(.data)
    .data                                    0x20000330   Section       24  motor.o(.data)
    pdu                                      0x2000033c   Data           4  motor.o(.data)
    .data                                    0x20000348   Section      108  balance.o(.data)
    battery_send_frame_num                   0x20000354   Data           1  balance.o(.data)
    power_ctrl                               0x2000035c   Data           2  balance.o(.data)
    BTA_Time                                 0x20000390   Data           4  balance.o(.data)
    BTA_Times                                0x20000394   Data           4  balance.o(.data)
    bt                                       0x20000398   Data           4  balance.o(.data)
    bt_times                                 0x2000039c   Data           4  balance.o(.data)
    pdu                                      0x200003a0   Data           4  balance.o(.data)
    .data                                    0x200003b4   Section        1  robot_select_init.o(.data)
    .data                                    0x200003b8   Section       52  rc_car.o(.data)
    enc_old                                  0x200003b8   Data           2  rc_car.o(.data)
    diff_enc                                 0x200003ba   Data           2  rc_car.o(.data)
    .bss                                     0x200003ec   Section     9392  application.o(.bss)
    InitStack                                0x200003ec   Data         512  application.o(.bss)
    InitHandle                               0x200005ec   Data         120  application.o(.bss)
    Balance_stack                            0x20000664   Data         512  application.o(.bss)
    Motor_stack                         0x20000864   Data        2048  application.o(.bss)
    Remote_stack                              0x20001064   Data         512  application.o(.bss)
    CAN_stack                                0x20001264   Data        2048  application.o(.bss)
    DATA_stack                               0x20001a64   Data         512  application.o(.bss)
    Modbus_stack                             0x20001c64   Data         512  application.o(.bss)
    ADC_stack                                0x20001e64   Data         512  application.o(.bss)
    Ultrasonic1_stack                        0x20002064   Data         512  application.o(.bss)
    Ultrasonic2_stack                        0x20002264   Data         512  application.o(.bss)
    Balance_thread                           0x20002464   Data         120  application.o(.bss)
    Motor_thread                        0x200024dc   Data         120  application.o(.bss)
    Remote_thread                             0x20002554   Data         120  application.o(.bss)
    CAN_thread                               0x200025cc   Data         120  application.o(.bss)
    DATA_thread                              0x20002644   Data         120  application.o(.bss)
    Modbus_thread                            0x200026bc   Data         120  application.o(.bss)
    ADC_thread                               0x20002734   Data         120  application.o(.bss)
    Ultrasonic1_thread                       0x200027ac   Data         120  application.o(.bss)
    Ultrasonic2_thread                       0x20002824   Data         120  application.o(.bss)
    .bss                                     0x2000289c   Section       16  application.o(.bss)
    .bss                                     0x200028ac   Section       16  application.o(.bss)
    .bss                                     0x200028bc   Section       16  application.o(.bss)
    .bss                                     0x200028cc   Section       16  application.o(.bss)
    .bss                                     0x200028dc   Section      376  idle.o(.bss)
    idle                                     0x200028dc   Data         120  idle.o(.bss)
    rt_thread_stack                          0x20002954   Data         256  idle.o(.bss)
    .bss                                     0x20002a54   Section       32  mem.o(.bss)
    heap_sem                                 0x20002a54   Data          32  mem.o(.bss)
    .bss                                     0x20002a74   Section      256  scheduler.o(.bss)
    .bss                                     0x20002b74   Section     3710  usartx.o(.bss)
    .bss                                     0x200039f4   Section     2030  mb.o(.bss)
    mbdata                                   0x20003a12   Data        2000  mb.o(.bss)
    .bss                                     0x200041e2   Section       32  mbfuncother.o(.bss)
    ucMBSlaveID                              0x200041e2   Data          32  mbfuncother.o(.bss)
    .bss                                     0x20004204   Section     1080  motor.o(.bss)
    motor_data                               0x200043e4   Data         600  motor.o(.bss)
    .bss                                     0x2000463c   Section      112  balance.o(.bss)
    .bss                                     0x200046ac   Section       20  robot_select_init.o(.bss)
    .bss                                     0x200046c0   Section       96  libspace.o(.bss)
    HEAP                                     0x20004720   Section      768  startup_n32g45x.o(HEAP)
    Heap_Mem                                 0x20004720   Data         768  startup_n32g45x.o(HEAP)
    STACK                                    0x20004a20   Section     5376  startup_n32g45x.o(STACK)
    Stack_Mem                                0x20004a20   Data        5376  startup_n32g45x.o(STACK)
    __initial_sp                             0x20005f20   Data           0  startup_n32g45x.o(STACK)

    Global Symbols

    Symbol Name                              Value     Ov Type        Size  Object(Section)

    BuildAttributes$$THM_ISAv4$E$P$D$K$B$S$7EM$VFPi3$EXTD16$VFPS$VFMA$PE$A:L22UL41UL21$X:L11$S22US41US21$IEEE1$IW$USESV6$~STKCKD$USESV7$~SHL$OTIME$ROPI$IEEEJ$EBA8$UX$STANDARDLIB$REQ8$PRES8$EABIv2 0x00000000   Number         0  anon$$obj.o ABSOLUTE
    __ARM_use_no_argv                        0x00000000   Number         0  main.o ABSOLUTE
    __ARM_exceptions_init                     - Undefined Weak Reference
    __alloca_initialize                       - Undefined Weak Reference
    __arm_fini_                               - Undefined Weak Reference
    __arm_preinit_                            - Undefined Weak Reference
    __cpp_initialize__aeabi_                  - Undefined Weak Reference
    __cxa_finalize                            - Undefined Weak Reference
    __rt_locale                               - Undefined Weak Reference
    __sigvec_lookup                           - Undefined Weak Reference
    _atexit_init                              - Undefined Weak Reference
    _call_atexit_fns                          - Undefined Weak Reference
    _clock_init                               - Undefined Weak Reference
    _fp_trap_init                             - Undefined Weak Reference
    _fp_trap_shutdown                         - Undefined Weak Reference
    _get_lc_collate                           - Undefined Weak Reference
    _get_lc_ctype                             - Undefined Weak Reference
    _get_lc_monetary                          - Undefined Weak Reference
    _get_lc_numeric                           - Undefined Weak Reference
    _get_lc_time                              - Undefined Weak Reference
    _getenv_init                              - Undefined Weak Reference
    _handle_redirection                       - Undefined Weak Reference
    _init_alloc                               - Undefined Weak Reference
    _init_user_alloc                          - Undefined Weak Reference
    _initio                                   - Undefined Weak Reference
    _rand_init                                - Undefined Weak Reference
    _signal_finish                            - Undefined Weak Reference
    _signal_init                              - Undefined Weak Reference
    _terminate_alloc                          - Undefined Weak Reference
    _terminate_user_alloc                     - Undefined Weak Reference
    _terminateio                              - Undefined Weak Reference
    __Vectors_Size                           0x00000198   Number         0  startup_n32g45x.o ABSOLUTE
    __Vectors                                0x08000000   Data           4  startup_n32g45x.o(RESET)
    __Vectors_End                            0x08000198   Data           0  startup_n32g45x.o(RESET)
    __main                                   0x08000199   Thumb Code     8  __main.o(!!!main)
    __scatterload                            0x080001a1   Thumb Code     0  __scatter.o(!!!scatter)
    __scatterload_rt2                        0x080001a1   Thumb Code    44  __scatter.o(!!!scatter)
    __scatterload_rt2_thumb_only             0x080001a1   Thumb Code     0  __scatter.o(!!!scatter)
    __scatterload_null                       0x080001af   Thumb Code     0  __scatter.o(!!!scatter)
    __decompress                             0x080001d5   Thumb Code    90  __dczerorl2.o(!!dczerorl2)
    __decompress1                            0x080001d5   Thumb Code     0  __dczerorl2.o(!!dczerorl2)
    __scatterload_zeroinit                   0x08000231   Thumb Code    28  __scatter_zi.o(!!handler_zi)
    __rt_lib_init                            0x0800024d   Thumb Code     0  libinit.o(.ARM.Collect$$libinit$$00000000)
    __rt_lib_init_fp_1                       0x0800024f   Thumb Code     0  libinit2.o(.ARM.Collect$$libinit$$00000001)
    __rt_lib_init_alloca_1                   0x08000253   Thumb Code     0  libinit2.o(.ARM.Collect$$libinit$$0000002E)
    __rt_lib_init_argv_1                     0x08000253   Thumb Code     0  libinit2.o(.ARM.Collect$$libinit$$0000002C)
    __rt_lib_init_atexit_1                   0x08000253   Thumb Code     0  libinit2.o(.ARM.Collect$$libinit$$0000001B)
    __rt_lib_init_clock_1                    0x08000253   Thumb Code     0  libinit2.o(.ARM.Collect$$libinit$$00000021)
    __rt_lib_init_cpp_1                      0x08000253   Thumb Code     0  libinit2.o(.ARM.Collect$$libinit$$00000032)
    __rt_lib_init_exceptions_1               0x08000253   Thumb Code     0  libinit2.o(.ARM.Collect$$libinit$$00000030)
    __rt_lib_init_fp_trap_1                  0x08000253   Thumb Code     0  libinit2.o(.ARM.Collect$$libinit$$0000001F)
    __rt_lib_init_getenv_1                   0x08000253   Thumb Code     0  libinit2.o(.ARM.Collect$$libinit$$00000023)
    __rt_lib_init_heap_1                     0x08000253   Thumb Code     0  libinit2.o(.ARM.Collect$$libinit$$0000000A)
    __rt_lib_init_lc_collate_1               0x08000253   Thumb Code     0  libinit2.o(.ARM.Collect$$libinit$$00000011)
    __rt_lib_init_lc_ctype_1                 0x08000253   Thumb Code     0  libinit2.o(.ARM.Collect$$libinit$$00000013)
    __rt_lib_init_lc_monetary_1              0x08000253   Thumb Code     0  libinit2.o(.ARM.Collect$$libinit$$00000015)
    __rt_lib_init_lc_numeric_1               0x08000253   Thumb Code     0  libinit2.o(.ARM.Collect$$libinit$$00000017)
    __rt_lib_init_lc_time_1                  0x08000253   Thumb Code     0  libinit2.o(.ARM.Collect$$libinit$$00000019)
    __rt_lib_init_preinit_1                  0x08000253   Thumb Code     0  libinit2.o(.ARM.Collect$$libinit$$00000004)
    __rt_lib_init_rand_1                     0x08000253   Thumb Code     0  libinit2.o(.ARM.Collect$$libinit$$0000000E)
    __rt_lib_init_return                     0x08000253   Thumb Code     0  libinit2.o(.ARM.Collect$$libinit$$00000033)
    __rt_lib_init_signal_1                   0x08000253   Thumb Code     0  libinit2.o(.ARM.Collect$$libinit$$0000001D)
    __rt_lib_init_stdio_1                    0x08000253   Thumb Code     0  libinit2.o(.ARM.Collect$$libinit$$00000025)
    __rt_lib_init_user_alloc_1               0x08000253   Thumb Code     0  libinit2.o(.ARM.Collect$$libinit$$0000000C)
    __rt_lib_shutdown                        0x08000255   Thumb Code     0  libshutdown.o(.ARM.Collect$$libshutdown$$00000000)
    __rt_lib_shutdown_cpp_1                  0x08000257   Thumb Code     0  libshutdown2.o(.ARM.Collect$$libshutdown$$00000004)
    __rt_lib_shutdown_fini_1                 0x08000257   Thumb Code     0  libshutdown2.o(.ARM.Collect$$libshutdown$$00000002)
    __rt_lib_shutdown_fp_trap_1              0x08000257   Thumb Code     0  libshutdown2.o(.ARM.Collect$$libshutdown$$00000009)
    __rt_lib_shutdown_heap_1                 0x08000257   Thumb Code     0  libshutdown2.o(.ARM.Collect$$libshutdown$$00000011)
    __rt_lib_shutdown_return                 0x08000257   Thumb Code     0  libshutdown2.o(.ARM.Collect$$libshutdown$$00000012)
    __rt_lib_shutdown_signal_1               0x08000257   Thumb Code     0  libshutdown2.o(.ARM.Collect$$libshutdown$$0000000C)
    __rt_lib_shutdown_stdio_1                0x08000257   Thumb Code     0  libshutdown2.o(.ARM.Collect$$libshutdown$$00000006)
    __rt_lib_shutdown_user_alloc_1           0x08000257   Thumb Code     0  libshutdown2.o(.ARM.Collect$$libshutdown$$0000000E)
    __rt_entry                               0x08000259   Thumb Code     0  __rtentry.o(.ARM.Collect$$rtentry$$00000000)
    __rt_entry_presh_1                       0x08000259   Thumb Code     0  __rtentry2.o(.ARM.Collect$$rtentry$$00000002)
    __rt_entry_sh                            0x08000259   Thumb Code     0  __rtentry4.o(.ARM.Collect$$rtentry$$00000004)
    __rt_entry_li                            0x0800025f   Thumb Code     0  __rtentry2.o(.ARM.Collect$$rtentry$$0000000A)
    __rt_entry_postsh_1                      0x0800025f   Thumb Code     0  __rtentry2.o(.ARM.Collect$$rtentry$$00000009)
    __rt_entry_main                          0x08000263   Thumb Code     0  __rtentry2.o(.ARM.Collect$$rtentry$$0000000D)
    __rt_entry_postli_1                      0x08000263   Thumb Code     0  __rtentry2.o(.ARM.Collect$$rtentry$$0000000C)
    __rt_exit                                0x0800026b   Thumb Code     0  rtexit.o(.ARM.Collect$$rtexit$$00000000)
    __rt_exit_ls                             0x0800026d   Thumb Code     0  rtexit2.o(.ARM.Collect$$rtexit$$00000003)
    __rt_exit_prels_1                        0x0800026d   Thumb Code     0  rtexit2.o(.ARM.Collect$$rtexit$$00000002)
    __rt_exit_exit                           0x08000271   Thumb Code     0  rtexit2.o(.ARM.Collect$$rtexit$$00000004)
    Reset_Handler                            0x08000279   Thumb Code     8  startup_n32g45x.o(.text)
    ADC1_2_IRQHandler                        0x08000293   Thumb Code     0  startup_n32g45x.o(.text)
    ADC3_4_IRQHandler                        0x08000293   Thumb Code     0  startup_n32g45x.o(.text)
    CAN1_RX1_IRQHandler                      0x08000293   Thumb Code     0  startup_n32g45x.o(.text)
    CAN1_SCE_IRQHandler                      0x08000293   Thumb Code     0  startup_n32g45x.o(.text)
    CAN2_RX1_IRQHandler                      0x08000293   Thumb Code     0  startup_n32g45x.o(.text)
    CAN2_SCE_IRQHandler                      0x08000293   Thumb Code     0  startup_n32g45x.o(.text)
    CAN2_TX_IRQHandler                       0x08000293   Thumb Code     0  startup_n32g45x.o(.text)
    COMP7_IRQHandler                         0x08000293   Thumb Code     0  startup_n32g45x.o(.text)
    COMP_1_2_3_IRQHandler                    0x08000293   Thumb Code     0  startup_n32g45x.o(.text)
    COMP_4_5_6_IRQHandler                    0x08000293   Thumb Code     0  startup_n32g45x.o(.text)
    DMA1_Channel1_IRQHandler                 0x08000293   Thumb Code     0  startup_n32g45x.o(.text)
    DMA1_Channel3_IRQHandler                 0x08000293   Thumb Code     0  startup_n32g45x.o(.text)
    DMA1_Channel5_IRQHandler                 0x08000293   Thumb Code     0  startup_n32g45x.o(.text)
    DMA1_Channel6_IRQHandler                 0x08000293   Thumb Code     0  startup_n32g45x.o(.text)
    DMA1_Channel7_IRQHandler                 0x08000293   Thumb Code     0  startup_n32g45x.o(.text)
    DMA1_Channel8_IRQHandler                 0x08000293   Thumb Code     0  startup_n32g45x.o(.text)
    DMA2_Channel1_IRQHandler                 0x08000293   Thumb Code     0  startup_n32g45x.o(.text)
    DMA2_Channel2_IRQHandler                 0x08000293   Thumb Code     0  startup_n32g45x.o(.text)
    DMA2_Channel3_IRQHandler                 0x08000293   Thumb Code     0  startup_n32g45x.o(.text)
    DMA2_Channel4_IRQHandler                 0x08000293   Thumb Code     0  startup_n32g45x.o(.text)
    DMA2_Channel6_IRQHandler                 0x08000293   Thumb Code     0  startup_n32g45x.o(.text)
    DMA2_Channel7_IRQHandler                 0x08000293   Thumb Code     0  startup_n32g45x.o(.text)
    DMA2_Channel8_IRQHandler                 0x08000293   Thumb Code     0  startup_n32g45x.o(.text)
    DVP_IRQHandler                           0x08000293   Thumb Code     0  startup_n32g45x.o(.text)
    ETH_IRQHandler                           0x08000293   Thumb Code     0  startup_n32g45x.o(.text)
    ETH_WKUP_IRQHandler                      0x08000293   Thumb Code     0  startup_n32g45x.o(.text)
    EXTI0_IRQHandler                         0x08000293   Thumb Code     0  startup_n32g45x.o(.text)
    EXTI15_10_IRQHandler                     0x08000293   Thumb Code     0  startup_n32g45x.o(.text)
    EXTI1_IRQHandler                         0x08000293   Thumb Code     0  startup_n32g45x.o(.text)
    EXTI2_IRQHandler                         0x08000293   Thumb Code     0  startup_n32g45x.o(.text)
    EXTI3_IRQHandler                         0x08000293   Thumb Code     0  startup_n32g45x.o(.text)
    FLASH_IRQHandler                         0x08000293   Thumb Code     0  startup_n32g45x.o(.text)
    I2C1_ER_IRQHandler                       0x08000293   Thumb Code     0  startup_n32g45x.o(.text)
    I2C1_EV_IRQHandler                       0x08000293   Thumb Code     0  startup_n32g45x.o(.text)
    I2C2_ER_IRQHandler                       0x08000293   Thumb Code     0  startup_n32g45x.o(.text)
    I2C2_EV_IRQHandler                       0x08000293   Thumb Code     0  startup_n32g45x.o(.text)
    I2C3_ER_IRQHandler                       0x08000293   Thumb Code     0  startup_n32g45x.o(.text)
    I2C3_EV_IRQHandler                       0x08000293   Thumb Code     0  startup_n32g45x.o(.text)
    I2C4_ER_IRQHandler                       0x08000293   Thumb Code     0  startup_n32g45x.o(.text)
    I2C4_EV_IRQHandler                       0x08000293   Thumb Code     0  startup_n32g45x.o(.text)
    MMU_IRQHandler                           0x08000293   Thumb Code     0  startup_n32g45x.o(.text)
    PVD_IRQHandler                           0x08000293   Thumb Code     0  startup_n32g45x.o(.text)
    QSPI_IRQHandler                          0x08000293   Thumb Code     0  startup_n32g45x.o(.text)
    RCC_IRQHandler                           0x08000293   Thumb Code     0  startup_n32g45x.o(.text)
    RSRAM_IRQHandler                         0x08000293   Thumb Code     0  startup_n32g45x.o(.text)
    RTCAlarm_IRQHandler                      0x08000293   Thumb Code     0  startup_n32g45x.o(.text)
    RTC_WKUP_IRQHandler                      0x08000293   Thumb Code     0  startup_n32g45x.o(.text)
    SAC_IRQHandler                           0x08000293   Thumb Code     0  startup_n32g45x.o(.text)
    SDIO_IRQHandler                          0x08000293   Thumb Code     0  startup_n32g45x.o(.text)
    SPI2_IRQHandler                          0x08000293   Thumb Code     0  startup_n32g45x.o(.text)
    SPI3_IRQHandler                          0x08000293   Thumb Code     0  startup_n32g45x.o(.text)
    TAMPER_IRQHandler                        0x08000293   Thumb Code     0  startup_n32g45x.o(.text)
    TIM1_BRK_IRQHandler                      0x08000293   Thumb Code     0  startup_n32g45x.o(.text)
    TIM1_CC_IRQHandler                       0x08000293   Thumb Code     0  startup_n32g45x.o(.text)
    TIM1_TRG_COM_IRQHandler                  0x08000293   Thumb Code     0  startup_n32g45x.o(.text)
    TIM2_IRQHandler                          0x08000293   Thumb Code     0  startup_n32g45x.o(.text)
    TIM6_IRQHandler                          0x08000293   Thumb Code     0  startup_n32g45x.o(.text)
    TIM7_IRQHandler                          0x08000293   Thumb Code     0  startup_n32g45x.o(.text)
    TIM8_BRK_IRQHandler                      0x08000293   Thumb Code     0  startup_n32g45x.o(.text)
    TIM8_CC_IRQHandler                       0x08000293   Thumb Code     0  startup_n32g45x.o(.text)
    TIM8_TRG_COM_IRQHandler                  0x08000293   Thumb Code     0  startup_n32g45x.o(.text)
    TIM8_UP_IRQHandler                       0x08000293   Thumb Code     0  startup_n32g45x.o(.text)
    TSC_IRQHandler                           0x08000293   Thumb Code     0  startup_n32g45x.o(.text)
    UART6_IRQHandler                         0x08000293   Thumb Code     0  startup_n32g45x.o(.text)
    UART7_IRQHandler                         0x08000293   Thumb Code     0  startup_n32g45x.o(.text)
    USART2_IRQHandler                        0x08000293   Thumb Code     0  startup_n32g45x.o(.text)
    USBWakeUp_IRQHandler                     0x08000293   Thumb Code     0  startup_n32g45x.o(.text)
    USB_HP_CAN1_TX_IRQHandler                0x08000293   Thumb Code     0  startup_n32g45x.o(.text)
    WWDG_IRQHandler                          0x08000293   Thumb Code     0  startup_n32g45x.o(.text)
    __user_initial_stackheap                 0x08000295   Thumb Code     0  startup_n32g45x.o(.text)
    rt_hw_interrupt_disable                  0x080002b9   Thumb Code     8  context_rvds.o(.text)
    rt_hw_interrupt_enable                   0x080002c1   Thumb Code     6  context_rvds.o(.text)
    rt_hw_context_switch                     0x080002c7   Thumb Code    32  context_rvds.o(.text)
    rt_hw_context_switch_interrupt           0x080002c7   Thumb Code     0  context_rvds.o(.text)
    PendSV_Handler                           0x080002e7   Thumb Code   108  context_rvds.o(.text)
    rt_hw_context_switch_to                  0x08000353   Thumb Code    70  context_rvds.o(.text)
    rt_hw_interrupt_thread_switch            0x08000399   Thumb Code     2  context_rvds.o(.text)
    HardFault_Handler                        0x0800039b   Thumb Code    56  context_rvds.o(.text)
    __aeabi_memcpy                           0x080003ed   Thumb Code     0  rt_memcpy_v6.o(.text)
    __rt_memcpy                              0x080003ed   Thumb Code   138  rt_memcpy_v6.o(.text)
    _memcpy_lastbytes                        0x08000453   Thumb Code     0  rt_memcpy_v6.o(.text)
    __aeabi_memcpy4                          0x08000477   Thumb Code     0  rt_memcpy_w.o(.text)
    __aeabi_memcpy8                          0x08000477   Thumb Code     0  rt_memcpy_w.o(.text)
    __rt_memcpy_w                            0x08000477   Thumb Code   100  rt_memcpy_w.o(.text)
    _memcpy_lastbytes_aligned                0x080004bf   Thumb Code     0  rt_memcpy_w.o(.text)
    __aeabi_memclr                           0x080004db   Thumb Code     0  rt_memclr.o(.text)
    __rt_memclr                              0x080004db   Thumb Code    68  rt_memclr.o(.text)
    _memset                                  0x080004df   Thumb Code     0  rt_memclr.o(.text)
    __aeabi_memclr4                          0x0800051f   Thumb Code     0  rt_memclr_w.o(.text)
    __aeabi_memclr8                          0x0800051f   Thumb Code     0  rt_memclr_w.o(.text)
    __rt_memclr_w                            0x0800051f   Thumb Code    78  rt_memclr_w.o(.text)
    _memset_w                                0x08000523   Thumb Code     0  rt_memclr_w.o(.text)
    __use_two_region_memory                  0x0800056d   Thumb Code     2  heapauxi.o(.text)
    __rt_heap_escrow$2region                 0x0800056f   Thumb Code     2  heapauxi.o(.text)
    __rt_heap_expand$2region                 0x08000571   Thumb Code     2  heapauxi.o(.text)
    __read_errno                             0x08000573   Thumb Code    10  _rserrno.o(.text)
    __set_errno                              0x0800057d   Thumb Code    12  _rserrno.o(.text)
    __aeabi_errno_addr                       0x08000589   Thumb Code     8  rt_errno_addr_intlibspace.o(.text)
    __errno$intlibspace                      0x08000589   Thumb Code     0  rt_errno_addr_intlibspace.o(.text)
    __rt_errno_addr$intlibspace              0x08000589   Thumb Code     0  rt_errno_addr_intlibspace.o(.text)
    __user_libspace                          0x08000591   Thumb Code     8  libspace.o(.text)
    __user_perproc_libspace                  0x08000591   Thumb Code     0  libspace.o(.text)
    __user_perthread_libspace                0x08000591   Thumb Code     0  libspace.o(.text)
    __user_setup_stackheap                   0x08000599   Thumb Code    74  sys_stackheap_outer.o(.text)
    exit                                     0x080005e3   Thumb Code    18  exit.o(.text)
    _sys_exit                                0x080005f5   Thumb Code     8  sys_exit.o(.text)
    __I$use$semihosting                      0x08000601   Thumb Code     0  use_no_semi.o(.text)
    __use_no_semihosting_swi                 0x08000601   Thumb Code     2  use_no_semi.o(.text)
    ADC_ClearFlag                            0x08000603   Thumb Code    10  n32g45x_adc.o(i.ADC_ClearFlag)
    __semihosting_library_function           0x08000603   Thumb Code     0  indicate_semi.o(.text)
    ADC_ConfigClk                            0x0800060d   Thumb Code   114  n32g45x_adc.o(i.ADC_ConfigClk)
    ADC_ConfigRegularChannel                 0x08000691   Thumb Code   168  n32g45x_adc.o(i.ADC_ConfigRegularChannel)
    ADC_Enable                               0x08000739   Thumb Code    28  n32g45x_adc.o(i.ADC_Enable)
    ADC_EnableSoftwareStartConv              0x08000755   Thumb Code    18  n32g45x_adc.o(i.ADC_EnableSoftwareStartConv)
    ADC_GetCalibrationStatus                 0x08000767   Thumb Code    24  n32g45x_adc.o(i.ADC_GetCalibrationStatus)
    ADC_GetDat                               0x0800077f   Thumb Code     6  n32g45x_adc.o(i.ADC_GetDat)
    ADC_GetData                              0x08000785   Thumb Code    98  user_adc.o(i.ADC_GetData)
    ADC_GetFlagStatus                        0x080007e7   Thumb Code    14  n32g45x_adc.o(i.ADC_GetFlagStatus)
    ADC_GetFlagStatusNew                     0x080007f5   Thumb Code    14  n32g45x_adc.o(i.ADC_GetFlagStatusNew)
    ADC_Init                                 0x08000805   Thumb Code    74  n32g45x_adc.o(i.ADC_Init)
    ADC_Initial                              0x08000855   Thumb Code    80  user_adc.o(i.ADC_Initial)
    ADC_StartCalibration                     0x080008a5   Thumb Code    24  n32g45x_adc.o(i.ADC_StartCalibration)
    ADC_task                                 0x080008bd   Thumb Code   310  user_adc.o(i.ADC_task)
    Abs_int                                  0x08000a05   Thumb Code     8  usartx.o(i.Abs_int)
    Adc_Init                                 0x08000a0d   Thumb Code   134  user_adc.o(i.Adc_Init)
    Balance_task                             0x08000aa9   Thumb Code  1730  balance.o(i.Balance_task)
    BatteryInfoInit                          0x08001189   Thumb Code   108  balance.o(i.BatteryInfoInit)
    BatteryInformation                       0x08001201   Thumb Code   502  balance.o(i.BatteryInformation)
    BusFault_Handler                         0x08001429   Thumb Code     2  n32g45x_it.o(i.BusFault_Handler)
    CAN1_InitFilter                          0x0800142d   Thumb Code   218  n32g45x_can.o(i.CAN1_InitFilter)
    CAN2_InitFilter                          0x0800151d   Thumb Code   218  n32g45x_can.o(i.CAN2_InitFilter)
    CAN2_RX0_IRQHandler                      0x0800160d   Thumb Code    18  user_can.o(i.CAN2_RX0_IRQHandler)
    CAN_ClearFlag                            0x08001629   Thumb Code    48  n32g45x_can.o(i.CAN_ClearFlag)
    CAN_Config                               0x0800165d   Thumb Code   244  user_can.o(i.CAN_Config)
    CAN_DeInit                               0x08001759   Thumb Code    58  n32g45x_can.o(i.CAN_DeInit)
    CAN_INTConfig                            0x08001793   Thumb Code    16  n32g45x_can.o(i.CAN_INTConfig)
    CAN_Init                                 0x080017a5   Thumb Code   244  n32g45x_can.o(i.CAN_Init)
    CAN_InitStruct                           0x08001899   Thumb Code    32  n32g45x_can.o(i.CAN_InitStruct)
    CAN_ReceiveMessage                       0x080018b9   Thumb Code   180  n32g45x_can.o(i.CAN_ReceiveMessage)
    CAN_TransmitMessage                      0x0800196d   Thumb Code   230  n32g45x_can.o(i.CAN_TransmitMessage)
    CanIRQProcess                            0x08001a55   Thumb Code   422  user_can.o(i.CanIRQProcess)
    CanIRQProcessFor8015D                    0x08001c05   Thumb Code   138  user_can.o(i.CanIRQProcessFor8015D)
    Can_Driver_Init                          0x08001c99   Thumb Code   184  user_can.o(i.Can_Driver_Init)
    Can_task                                 0x08001d55   Thumb Code   348  user_can.o(i.Can_task)
    Car_Light_Control                        0x08001ec5   Thumb Code   612  balance.o(i.Car_Light_Control)
    ChargeDetection_Init                     0x0800214d   Thumb Code    80  charger.o(i.ChargeDetection_Init)
    DATA_task                                0x0800221d   Thumb Code   206  usartx.o(i.DATA_task)
    DMA1_Channel2_IRQHandler                 0x08002305   Thumb Code    44  usartx.o(i.DMA1_Channel2_IRQHandler)
    DMA1_Channel4_IRQHandler                 0x0800233d   Thumb Code    48  usartx.o(i.DMA1_Channel4_IRQHandler)
    DMA2_Channel5_IRQHandler                 0x08002379   Thumb Code    84  usartx.o(i.DMA2_Channel5_IRQHandler)
    DMA_ClrIntPendingBit                     0x080023e1   Thumb Code     4  n32g45x_dma.o(i.DMA_ClrIntPendingBit)
    DMA_ConfigInt                            0x080023e5   Thumb Code    16  n32g45x_dma.o(i.DMA_ConfigInt)
    DMA_DeInit                               0x080023f5   Thumb Code   256  n32g45x_dma.o(i.DMA_DeInit)
    DMA_EnableChannel                        0x08002539   Thumb Code    20  n32g45x_dma.o(i.DMA_EnableChannel)
    DMA_GetCurrDataCounter                   0x0800254d   Thumb Code     6  n32g45x_dma.o(i.DMA_GetCurrDataCounter)
    DMA_GetIntStatus                         0x08002553   Thumb Code    14  n32g45x_dma.o(i.DMA_GetIntStatus)
    DMA_Init                                 0x08002561   Thumb Code    82  n32g45x_dma.o(i.DMA_Init)
    DMA_RequestRemap                         0x080025b3   Thumb Code    16  n32g45x_dma.o(i.DMA_RequestRemap)
    DMA_SetCurrDataCounter                   0x080025c3   Thumb Code     4  n32g45x_dma.o(i.DMA_SetCurrDataCounter)
    DMA_StructInit                           0x080025c7   Thumb Code    26  n32g45x_dma.o(i.DMA_StructInit)
    Data_transition                          0x080025e1   Thumb Code   674  usartx.o(i.Data_transition)
    DebugMon_Handler                         0x080028e1   Thumb Code     2  n32g45x_it.o(i.DebugMon_Handler)
    Drive_Motor                              0x080028e5   Thumb Code   316  balance.o(i.Drive_Motor)
    EXTI4_IRQHandler                         0x08002a49   Thumb Code    98  n32g45x_it.o(i.EXTI4_IRQHandler)
    EXTI9_5_IRQHandler                       0x08002abd   Thumb Code    80  n32g45x_it.o(i.EXTI9_5_IRQHandler)
    EXTI_ClrITPendBit                        0x08002b1d   Thumb Code     6  n32g45x_exti.o(i.EXTI_ClrITPendBit)
    EXTI_GetITStatus                         0x08002b29   Thumb Code    24  n32g45x_exti.o(i.EXTI_GetITStatus)
    FLASH_ClearFlag                          0x08002b49   Thumb Code    10  n32g45x_flash.o(i.FLASH_ClearFlag)
    FLASH_EraseOnePage                       0x08002b59   Thumb Code    66  n32g45x_flash.o(i.FLASH_EraseOnePage)
    FLASH_Lock                               0x08002ba1   Thumb Code    12  n32g45x_flash.o(i.FLASH_Lock)
    FLASH_PrefetchBufSet                     0x08002bb1   Thumb Code    18  n32g45x_flash.o(i.FLASH_PrefetchBufSet)
    FLASH_ProgramWord                        0x08002bc9   Thumb Code    70  n32g45x_flash.o(i.FLASH_ProgramWord)
    FLASH_SetLatency                         0x08002c15   Thumb Code    14  n32g45x_flash.o(i.FLASH_SetLatency)
    FLASH_Unlock                             0x08002c29   Thumb Code    12  n32g45x_flash.o(i.FLASH_Unlock)
    FLASH_WaitForLastOpt                     0x08002c41   Thumb Code   144  n32g45x_flash.o(i.FLASH_WaitForLastOpt)
    FLASH_iCacheCmd                          0x08002cd5   Thumb Code    18  n32g45x_flash.o(i.FLASH_iCacheCmd)
    GPIO_ConfigPinRemap                      0x08002ced   Thumb Code   334  n32g45x_gpio.o(i.GPIO_ConfigPinRemap)
    GPIO_DeInit                              0x08002e45   Thumb Code   216  n32g45x_gpio.o(i.GPIO_DeInit)
    GPIO_InitPeripheral                      0x08002f1d   Thumb Code   174  n32g45x_gpio.o(i.GPIO_InitPeripheral)
    GPIO_InitStruct                          0x08002fcb   Thumb Code    16  n32g45x_gpio.o(i.GPIO_InitStruct)
    GPIO_ReadInputDataBit                    0x08002fdb   Thumb Code    14  n32g45x_gpio.o(i.GPIO_ReadInputDataBit)
    GPIO_ReadOutputDataBit                   0x08002fe9   Thumb Code    14  n32g45x_gpio.o(i.GPIO_ReadOutputDataBit)
    GPIO_ResetBits                           0x08002ff7   Thumb Code     4  n32g45x_gpio.o(i.GPIO_ResetBits)
    GPIO_SetBits                             0x08002ffb   Thumb Code     4  n32g45x_gpio.o(i.GPIO_SetBits)
    GPIO_WriteBit                            0x08002fff   Thumb Code    10  n32g45x_gpio.o(i.GPIO_WriteBit)
    Get_Motor_Velocity                       0x08003009   Thumb Code   440  balance.o(i.Get_Motor_Velocity)
    IC_Init                                  0x080031e9   Thumb Code   164  charger.o(i.IC_Init)
    IR_RX_Init                               0x08003295   Thumb Code    38  charger.o(i.IR_RX_Init)
    IWDG_ReloadKey                           0x080032c1   Thumb Code    10  n32g45x_iwdg.o(i.IWDG_ReloadKey)
    IWDG_SetPrescalerDiv                     0x080032d1   Thumb Code     6  n32g45x_iwdg.o(i.IWDG_SetPrescalerDiv)
    IWDG_WriteConfig                         0x080032dd   Thumb Code     6  n32g45x_iwdg.o(i.IWDG_WriteConfig)
    IrDA_ReceiveData                         0x080035ed   Thumb Code   172  charger.o(i.IrDA_ReceiveData)
    IrDA_SendData                            0x080036a5   Thumb Code   172  balance.o(i.IrDA_SendData)
    IsSdoEmpty                               0x08003755   Thumb Code    14  user_can.o(i.IsSdoEmpty)
    JTAG_Set                                 0x08003769   Thumb Code    30  usartx.o(i.JTAG_Set)
    Jump_To_BOOT                             0x08003791   Thumb Code   306  mb.o(i.Jump_To_BOOT)
    Key_Change_RGB                           0x08003911   Thumb Code    58  charger.o(i.Key_Change_RGB)
    Key_Init                                 0x08003955   Thumb Code    50  charger.o(i.Key_Init)
    GPIO_Init                                 0x0800398d   Thumb Code   436  led.o(i.GPIO_Init)
    LedBlink                                 0x08003b51   Thumb Code     8  led.o(i.LedBlink)
    LimitSwitch_Init                         0x08003b59   Thumb Code    38  charger.o(i.LimitSwitch_Init)
    MB_Analyze_Execute                       0x08003b85   Thumb Code   538  mb.o(i.MB_Analyze_Execute)
    MB_RSP                                   0x08003da5   Thumb Code   862  mb.o(i.MB_RSP)
    MemManage_Handler                        0x0800411d   Thumb Code     2  n32g45x_it.o(i.MemManage_Handler)
    Modbus_task                              0x08004121   Thumb Code   266  usartx.o(i.Modbus_task)
    Motor                               0x08004249   Thumb Code   120  motor.o(i.Motor)
    Motor_task                          0x080042c9   Thumb Code   304  motor.o(i.Motor_task)
    Motor_task                               0x08004409   Thumb Code   598  motor.o(i.Motor_task)
    MyFLASH_ReadByte                         0x08004671   Thumb Code    48  flash_wr.o(i.MyFLASH_ReadByte)
    MyFLASH_WriteWord                        0x080046a1   Thumb Code    80  flash_wr.o(i.MyFLASH_WriteWord)
    NMI_Handler                              0x080046f1   Thumb Code     2  n32g45x_it.o(i.NMI_Handler)
    NMT_Control                              0x080046f3   Thumb Code    28  user_can.o(i.NMT_Control)
    NVIC_Config                              0x0800470f   Thumb Code    58  charger.o(i.NVIC_Config)
    NVIC_Init                                0x08004749   Thumb Code   112  misc.o(i.NVIC_Init)
    NVIC_PriorityGroupConfig                 0x080047bd   Thumb Code    14  misc.o(i.NVIC_PriorityGroupConfig)
    PLAN_PDO_Config                          0x080047d1   Thumb Code   166  user_can.o(i.PLAN_PDO_Config)
    Pdu_Init                                 0x08004881   Thumb Code   508  usartx.o(i.Pdu_Init)
    RCCAR_Init                               0x08004ab9   Thumb Code   700  rc_car.o(i.RCCAR_Init)
    RCCAR_Process                            0x08004db9   Thumb Code   178  rc_car.o(i.RCCAR_Process)
    RCC_ConfigAdc1mClk                       0x08004e71   Thumb Code    16  n32g45x_rcc.o(i.RCC_ConfigAdc1mClk)
    RCC_ConfigAdcHclk                        0x08004e85   Thumb Code    14  n32g45x_rcc.o(i.RCC_ConfigAdcHclk)
    RCC_ConfigAdcPllClk                      0x08004e99   Thumb Code    24  n32g45x_rcc.o(i.RCC_ConfigAdcPllClk)
    RCC_ConfigHclk                           0x08004eb5   Thumb Code    14  n32g45x_rcc.o(i.RCC_ConfigHclk)
    RCC_ConfigPclk1                          0x08004ec9   Thumb Code    14  n32g45x_rcc.o(i.RCC_ConfigPclk1)
    RCC_ConfigPclk2                          0x08004edd   Thumb Code    16  n32g45x_rcc.o(i.RCC_ConfigPclk2)
    RCC_ConfigPll                            0x08004ef1   Thumb Code    20  n32g45x_rcc.o(i.RCC_ConfigPll)
    RCC_ConfigSysclk                         0x08004f09   Thumb Code    14  n32g45x_rcc.o(i.RCC_ConfigSysclk)
    RCC_DeInit                               0x08004f1d   Thumb Code    70  n32g45x_rcc.o(i.RCC_DeInit)
    RCC_EnableAHBPeriphClk                   0x08004f6d   Thumb Code    18  n32g45x_rcc.o(i.RCC_EnableAHBPeriphClk)
    RCC_EnableAPB1PeriphClk                  0x08004f85   Thumb Code    18  n32g45x_rcc.o(i.RCC_EnableAPB1PeriphClk)
    RCC_EnableAPB1PeriphReset                0x08004f9d   Thumb Code    18  n32g45x_rcc.o(i.RCC_EnableAPB1PeriphReset)
    RCC_EnableAPB2PeriphClk                  0x08004fb5   Thumb Code    18  n32g45x_rcc.o(i.RCC_EnableAPB2PeriphClk)
    RCC_EnableAPB2PeriphReset                0x08004fcd   Thumb Code    18  n32g45x_rcc.o(i.RCC_EnableAPB2PeriphReset)
    RCC_EnableHsi                            0x08004fe5   Thumb Code     6  n32g45x_rcc.o(i.RCC_EnableHsi)
    RCC_EnablePll                            0x08004ff1   Thumb Code     6  n32g45x_rcc.o(i.RCC_EnablePll)
    RCC_GetClocksFreqValue                   0x08004ffd   Thumb Code   200  n32g45x_rcc.o(i.RCC_GetClocksFreqValue)
    RCC_GetFlagStatus                        0x080050dd   Thumb Code    42  n32g45x_rcc.o(i.RCC_GetFlagStatus)
    RCC_GetSysclkSrc                         0x0800510d   Thumb Code    10  n32g45x_rcc.o(i.RCC_GetSysclkSrc)
    RGB_Init                                 0x0800511d   Thumb Code   170  charger.o(i.RGB_Init)
    RGB_SetValue                             0x080051d1   Thumb Code   126  charger.o(i.RGB_SetValue)
    RGB_ShowCharged                          0x08005259   Thumb Code   136  charger.o(i.RGB_ShowCharged)
    RGB_ShowCharging                         0x080052e9   Thumb Code   136  charger.o(i.RGB_ShowCharging)
    RGB_ShowError                            0x08005379   Thumb Code   136  charger.o(i.RGB_ShowError)
    Relay_Init                               0x08005409   Thumb Code    48  charger.o(i.Relay_Init)
    Robot_Select                             0x0800543d   Thumb Code   158  robot_select_init.o(i.Robot_Select)
    SPI1_IRQHandler                          0x08005519   Thumb Code    44  n32g45x_it.o(i.SPI1_IRQHandler)
    SPI_Enable                               0x08005555   Thumb Code    18  n32g45x_spi.o(i.SPI_Enable)
    SPI_I2S_EnableInt                        0x08005567   Thumb Code    26  n32g45x_spi.o(i.SPI_I2S_EnableInt)
    SPI_I2S_GetStatus                        0x08005581   Thumb Code    14  n32g45x_spi.o(i.SPI_I2S_GetStatus)
    SPI_Init                                 0x0800558f   Thumb Code    84  n32g45x_spi.o(i.SPI_Init)
    SVC_Handler                              0x080055e3   Thumb Code     2  n32g45x_it.o(i.SVC_Handler)
    SdoFramCereat                            0x080055e5   Thumb Code    46  user_can.o(i.SdoFramCereat)
    SetReal_Velocity                         0x08005619   Thumb Code   632  usartx.o(i.SetReal_Velocity)
    Set_Director                             0x080058b5   Thumb Code   392  usartx.o(i.Set_Director)
    Soft_Reset                               0x08005a4d   Thumb Code     6  application.o(i.Soft_Reset)
    SysTick_Handler                          0x08005a53   Thumb Code    18  bsp.o(i.SysTick_Handler)
    SystemInit                               0x08005a65   Thumb Code   368  system_n32g45x.o(i.SystemInit)
    TIM1_UP_IRQHandler                       0x08005c01   Thumb Code   130  charger.o(i.TIM1_UP_IRQHandler)
    TIM3_IRQHandler                          0x08005c91   Thumb Code    30  n32g45x_it.o(i.TIM3_IRQHandler)
    TIM4_IRQHandler                          0x08005cb5   Thumb Code    36  n32g45x_it.o(i.TIM4_IRQHandler)
    TIM5_IRQHandler                          0x08005ce1   Thumb Code    36  charger.o(i.TIM5_IRQHandler)
    TIM_ClearFlag                            0x08005d0d   Thumb Code     6  n32g45x_tim.o(i.TIM_ClearFlag)
    TIM_ClrIntPendingBit                     0x08005d13   Thumb Code     6  n32g45x_tim.o(i.TIM_ClrIntPendingBit)
    TIM_ConfigArPreload                      0x08005d19   Thumb Code    18  n32g45x_tim.o(i.TIM_ConfigArPreload)
    TIM_ConfigEncoderInterface               0x08005d2b   Thumb Code    60  n32g45x_tim.o(i.TIM_ConfigEncoderInterface)
    TIM_ConfigInt                            0x08005d67   Thumb Code    16  n32g45x_tim.o(i.TIM_ConfigInt)
    TIM_ConfigOc1Preload                     0x08005d77   Thumb Code    12  n32g45x_tim.o(i.TIM_ConfigOc1Preload)
    TIM_ConfigOc2Preload                     0x08005d83   Thumb Code    20  n32g45x_tim.o(i.TIM_ConfigOc2Preload)
    TIM_ConfigOc4Preload                     0x08005d97   Thumb Code    20  n32g45x_tim.o(i.TIM_ConfigOc4Preload)
    TIM_ConfigPwmIc                          0x08005dad   Thumb Code   332  n32g45x_tim.o(i.TIM_ConfigPwmIc)
    TIM_DeInit                               0x08005f05   Thumb Code   244  n32g45x_tim.o(i.TIM_DeInit)
    TIM_Enable                               0x08005ff9   Thumb Code    18  n32g45x_tim.o(i.TIM_Enable)
    TIM_EnableCtrlPwmOutputs                 0x0800600b   Thumb Code    22  n32g45x_tim.o(i.TIM_EnableCtrlPwmOutputs)
    TIM_GetCap2                              0x08006021   Thumb Code     4  n32g45x_tim.o(i.TIM_GetCap2)
    TIM_GetCnt                               0x08006025   Thumb Code     4  n32g45x_tim.o(i.TIM_GetCnt)
    TIM_GetIntStatus                         0x08006029   Thumb Code    22  n32g45x_tim.o(i.TIM_GetIntStatus)
    TIM_ICInit                               0x08006041   Thumb Code   424  n32g45x_tim.o(i.TIM_ICInit)
    TIM_InitIcStruct                         0x080061fd   Thumb Code    16  n32g45x_tim.o(i.TIM_InitIcStruct)
    TIM_InitOc1                              0x0800620d   Thumb Code   104  n32g45x_tim.o(i.TIM_InitOc1)
    TIM_InitOc2                              0x08006275   Thumb Code   124  n32g45x_tim.o(i.TIM_InitOc2)
    TIM_InitOc4                              0x080062f1   Thumb Code    98  n32g45x_tim.o(i.TIM_InitOc4)
    TIM_InitOcStruct                         0x08006353   Thumb Code    20  n32g45x_tim.o(i.TIM_InitOcStruct)
    TIM_InitTimBaseStruct                    0x08006367   Thumb Code    30  n32g45x_tim.o(i.TIM_InitTimBaseStruct)
    TIM_InitTimeBase                         0x08006385   Thumb Code   292  n32g45x_tim.o(i.TIM_InitTimeBase)
    TIM_SelectInputTrig                      0x080064bd   Thumb Code    12  n32g45x_tim.o(i.TIM_SelectInputTrig)
    TIM_SelectSlaveMode                      0x080064c9   Thumb Code    16  n32g45x_tim.o(i.TIM_SelectSlaveMode)
    TIM_SetCmp1                              0x080064d9   Thumb Code     4  n32g45x_tim.o(i.TIM_SetCmp1)
    TIM_SetCmp2                              0x080064dd   Thumb Code     4  n32g45x_tim.o(i.TIM_SetCmp2)
    TIM_SetCmp4                              0x080064e1   Thumb Code     6  n32g45x_tim.o(i.TIM_SetCmp4)
    TIM_SetCnt                               0x080064e7   Thumb Code     4  n32g45x_tim.o(i.TIM_SetCnt)
    Target_Direct_get                        0x080064ed   Thumb Code    42  usartx.o(i.Target_Direct_get)
    UART4_IRQHandler                         0x0800651d   Thumb Code    58  usartx.o(i.UART4_IRQHandler)
    UART5_IRQHandler                         0x08006569   Thumb Code   166  usartx.o(i.UART5_IRQHandler)
    USART1_IRQHandler                        0x08006621   Thumb Code    56  usartx.o(i.USART1_IRQHandler)
    Usart1_Init                              0x08006669   Thumb Code   170  usartx.o(i.Usart1_Init)
    USART3_IRQHandler                        0x0800671d   Thumb Code    86  usartx.o(i.USART3_IRQHandler)
    USART_ClrFlag                            0x08006789   Thumb Code     6  n32g45x_usart.o(i.USART_ClrFlag)
    USART_ConfigInt                          0x0800678f   Thumb Code    48  n32g45x_usart.o(i.USART_ConfigInt)
    USART_DeInit                             0x080067bf   Thumb Code   228  n32g45x_usart.o(i.USART_DeInit)
    USART_Enable                             0x080068a3   Thumb Code    18  n32g45x_usart.o(i.USART_Enable)
    USART_EnableDMA                          0x080068b5   Thumb Code    16  n32g45x_usart.o(i.USART_EnableDMA)
    USART_GetIntStatus                       0x080068c5   Thumb Code    76  n32g45x_usart.o(i.USART_GetIntStatus)
    USART_Init                               0x08006911   Thumb Code   174  n32g45x_usart.o(i.USART_Init)
    USART_ReceiveData                        0x080069c5   Thumb Code     8  n32g45x_usart.o(i.USART_ReceiveData)
    USB_LP_CAN1_RX0_IRQHandler               0x080069cd   Thumb Code    18  user_can.o(i.USB_LP_CAN1_RX0_IRQHandler)
    Ultrasonic1_task                         0x080069e9   Thumb Code   294  balance.o(i.Ultrasonic1_task)
    Ultrasonic2_task                         0x08006b2d   Thumb Code   270  balance.o(i.Ultrasonic2_task)
    UltrasonicSetEnable                      0x08006c55   Thumb Code    42  led.o(i.UltrasonicSetEnable)
    Sbus_Data_Parsing                              0x08006c81   Thumb Code   286  usartx.o(i.Sbus_Data_Parsing)
    UsageFault_Handler                       0x08006da9   Thumb Code     2  n32g45x_it.o(i.UsageFault_Handler)
    Usart3_Init                              0x08006dad   Thumb Code   162  usartx.o(i.Usart3_Init)
    Uart4_Init                              0x08006e59   Thumb Code   226  usartx.o(i.Uart4_Init)
    Uart5_Init                              0x08006f51   Thumb Code   282  usartx.o(i.Uart5_Init)
    WANZER_PDO_Config                        0x08007089   Thumb Code   148  user_can.o(i.WANZER_PDO_Config)
    ZLAC8015D_PDO_Config                     0x08007125   Thumb Code   128  user_can.o(i.ZLAC8015D_PDO_Config)
    ZLAC8015_PDO_Config                      0x080071ad   Thumb Code   148  user_can.o(i.ZLAC8015_PDO_Config)
    __rt_ffs                                 0x08007249   Thumb Code    66  kservice.o(i.__rt_ffs)
    eMBEnable                                0x08007291   Thumb Code    30  mb.o(i.eMBEnable)
    eMBFuncReadCoils                         0x080072b5   Thumb Code    98  mbfunccoils.o(i.eMBFuncReadCoils)
    eMBFuncReadDiscreteInputs                0x08007317   Thumb Code   100  mbfuncdisc.o(i.eMBFuncReadDiscreteInputs)
    eMBFuncReadHoldingRegister               0x0800737b   Thumb Code    74  mbfuncholding.o(i.eMBFuncReadHoldingRegister)
    eMBFuncReadInputRegister                 0x080073c5   Thumb Code    80  mbfuncinput.o(i.eMBFuncReadInputRegister)
    eMBFuncReadWriteMultipleHoldingRegister  0x08007415   Thumb Code    98  mbfuncholding.o(i.eMBFuncReadWriteMultipleHoldingRegister)
    eMBFuncReportSlaveID                     0x08007479   Thumb Code    26  mbfuncother.o(i.eMBFuncReportSlaveID)
    eMBFuncWriteCoil                         0x0800749d   Thumb Code    44  mbfunccoils.o(i.eMBFuncWriteCoil)
    eMBFuncWriteHoldingRegister              0x080074c9   Thumb Code    24  mbfuncholding.o(i.eMBFuncWriteHoldingRegister)
    eMBFuncWriteMultipleCoils                0x080074e1   Thumb Code    80  mbfunccoils.o(i.eMBFuncWriteMultipleCoils)
    eMBFuncWriteMultipleHoldingRegister      0x08007531   Thumb Code    64  mbfuncholding.o(i.eMBFuncWriteMultipleHoldingRegister)
    eMBInit                                  0x08007571   Thumb Code    90  mb.o(i.eMBInit)
    eMBPoll                                  0x080075ed   Thumb Code   236  mb.o(i.eMBPoll)
    eMBRTUReceive                            0x080076f5   Thumb Code    90  mbrtu.o(i.eMBRTUReceive)
    eMBRTUStart                              0x08007759   Thumb Code    18  mbrtu.o(i.eMBRTUStart)
    eMBRTUStop                               0x08007771   Thumb Code    24  mbrtu.o(i.eMBRTUStop)
    getPDUData                               0x08007789   Thumb Code     4  mb.o(i.getPDUData)
    main                                     0x08007791   Thumb Code    50  main.o(i.main)
    modbus_task_init                         0x080077cd   Thumb Code   104  usartx.o(i.modbus_task_init)
    prveMBError2Exception                    0x0800783d   Thumb Code    24  mbutils.o(i.prveMBError2Exception)
    rt_application_init                      0x08007855   Thumb Code    50  application.o(i.rt_application_init)
    rt_enter_critical                        0x0800789d   Thumb Code    22  scheduler.o(i.rt_enter_critical)
    rt_exit_critical                         0x080078b9   Thumb Code   126  scheduler.o(i.rt_exit_critical)
    rt_free                                  0x08007945   Thumb Code   164  mem.o(i.rt_free)
    rt_hw_board_init                         0x080079f1   Thumb Code    56  bsp.o(i.rt_hw_board_init)
    rt_hw_hard_fault_exception               0x08007a31   Thumb Code    20  cpuport.o(i.rt_hw_hard_fault_exception)
    rt_hw_stack_init                         0x08007a49   Thumb Code    64  cpuport.o(i.rt_hw_stack_init)
    rt_interrupt_enter                       0x08007a8d   Thumb Code    22  irq.o(i.rt_interrupt_enter)
    rt_interrupt_leave                       0x08007aa9   Thumb Code    22  irq.o(i.rt_interrupt_leave)
    rt_malloc                                0x08007ac5   Thumb Code   270  mem.o(i.rt_malloc)
    rt_memset                                0x08007bdd   Thumb Code    52  kservice.o(i.rt_memset)
    rt_object_delete                         0x08007c11   Thumb Code    46  object.o(i.rt_object_delete)
    rt_object_detach                         0x08007c3f   Thumb Code    44  object.o(i.rt_object_detach)
    rt_object_get_information                0x08007c6d   Thumb Code    68  object.o(i.rt_object_get_information)
    rt_object_init                           0x08007cb5   Thumb Code    84  object.o(i.rt_object_init)
    rt_object_is_systemobject                0x08007d09   Thumb Code    12  object.o(i.rt_object_is_systemobject)
    rt_schedule                              0x08007d15   Thumb Code    86  scheduler.o(i.rt_schedule)
    rt_schedule_insert_thread                0x08007d79   Thumb Code    72  scheduler.o(i.rt_schedule_insert_thread)
    rt_schedule_remove_thread                0x08007dc9   Thumb Code    70  scheduler.o(i.rt_schedule_remove_thread)
    rt_sem_init                              0x08007e19   Thumb Code    32  ipc.o(i.rt_sem_init)
    rt_sem_release                           0x08007e39   Thumb Code    54  ipc.o(i.rt_sem_release)
    rt_sem_take                              0x08007e71   Thumb Code   208  ipc.o(i.rt_sem_take)
    rt_strncpy                               0x08007f41   Thumb Code    98  kservice.o(i.rt_strncpy)
    rt_system_heap_init                      0x08007fa5   Thumb Code    86  mem.o(i.rt_system_heap_init)
    rt_system_scheduler_init                 0x0800800d   Thumb Code    50  scheduler.o(i.rt_system_scheduler_init)
    rt_system_scheduler_start                0x0800804d   Thumb Code    32  scheduler.o(i.rt_system_scheduler_start)
    rt_system_timer_init                     0x08008075   Thumb Code     8  timer.o(i.rt_system_timer_init)
    rt_system_timer_thread_init              0x08008081   Thumb Code     2  timer.o(i.rt_system_timer_thread_init)
    rt_thread_delay                          0x08008085   Thumb Code   114  thread.o(i.rt_thread_delay)
    rt_thread_exit                           0x080080fd   Thumb Code    88  thread.o(i.rt_thread_exit)
    rt_thread_idle_init                      0x080081e5   Thumb Code    40  idle.o(i.rt_thread_idle_init)
    rt_thread_init                           0x08008221   Thumb Code   128  thread.o(i.rt_thread_init)
    rt_thread_resume                         0x080082a9   Thumb Code    72  thread.o(i.rt_thread_resume)
    rt_thread_self                           0x080082f1   Thumb Code     6  thread.o(i.rt_thread_self)
    rt_thread_startup                        0x080082fd   Thumb Code    88  thread.o(i.rt_thread_startup)
    rt_thread_suspend                        0x08008359   Thumb Code    68  thread.o(i.rt_thread_suspend)
    rt_thread_timeout                        0x0800839d   Thumb Code    40  thread.o(i.rt_thread_timeout)
    rt_thread_yield                          0x080083c5   Thumb Code    92  thread.o(i.rt_thread_yield)
    rt_tick_get                              0x08008429   Thumb Code     6  clock.o(i.rt_tick_get)
    rt_tick_increase                         0x08008435   Thumb Code    38  clock.o(i.rt_tick_increase)
    rt_timer_check                           0x08008461   Thumb Code   272  timer.o(i.rt_timer_check)
    rt_timer_control                         0x08008575   Thumb Code    50  timer.o(i.rt_timer_control)
    rt_timer_detach                          0x080085a7   Thumb Code    42  timer.o(i.rt_timer_detach)
    rt_timer_init                            0x080085d1   Thumb Code    50  timer.o(i.rt_timer_init)
    rt_timer_start                           0x08008605   Thumb Code   162  timer.o(i.rt_timer_start)
    rt_timer_stop                            0x080086b1   Thumb Code    58  timer.o(i.rt_timer_stop)
    sqrtf                                    0x080086fb   Thumb Code    62  sqrtf.o(i.sqrtf)
    uart1_dma_config                         0x08008739   Thumb Code   206  usartx.o(i.uart1_dma_config)
    uart3_dma_config                         0x08008821   Thumb Code   204  usartx.o(i.uart3_dma_config)
    Uart4_Dma_Config                         0x08008905   Thumb Code   206  usartx.o(i.Uart4_Dma_Config)
    usMBCRC16                                0x080089ed   Thumb Code    58  mbcrc.o(i.usMBCRC16)
    vMBPortSerialEnable                      0x08008a2d   Thumb Code     2  portserial.o(i.vMBPortSerialEnable)
    xMBPortEventGet                          0x08008a31   Thumb Code    24  portevent.o(i.xMBPortEventGet)
    xMBPortEventInit                         0x08008a4d   Thumb Code    10  portevent.o(i.xMBPortEventInit)
    xMBPortEventPost                         0x08008a5d   Thumb Code    12  portevent.o(i.xMBPortEventPost)
    xMBPortSerialPutByte                     0x08008a6d   Thumb Code     4  portserial.o(i.xMBPortSerialPutByte)
    xMBRTUReceiveFSM                         0x08008a71   Thumb Code    42  mbrtu.o(i.xMBRTUReceiveFSM)
    xMBRTUTimerT35Expired                    0x08008aa5   Thumb Code    34  mbrtu.o(i.xMBRTUTimerT35Expired)
    xMBRTUTransmitFSM                        0x08008acd   Thumb Code    76  mbrtu.o(i.xMBRTUTransmitFSM)
    __aeabi_d2f                              0x08008b1d   Thumb Code     0  d2f.o(x$fpl$d2f)
    _d2f                                     0x08008b1d   Thumb Code    98  d2f.o(x$fpl$d2f)
    __aeabi_dadd                             0x08008b81   Thumb Code     0  daddsub_clz.o(x$fpl$dadd)
    _dadd                                    0x08008b81   Thumb Code   332  daddsub_clz.o(x$fpl$dadd)
    __fpl_dcmp_Inf                           0x08008cd1   Thumb Code    24  dcmpi.o(x$fpl$dcmpinf)
    __aeabi_ddiv                             0x08008ce9   Thumb Code     0  ddiv.o(x$fpl$ddiv)
    _ddiv                                    0x08008ce9   Thumb Code   552  ddiv.o(x$fpl$ddiv)
    __aeabi_d2iz                             0x08008f99   Thumb Code     0  dfix.o(x$fpl$dfix)
    _dfix                                    0x08008f99   Thumb Code    94  dfix.o(x$fpl$dfix)
    __aeabi_d2uiz                            0x08008ff9   Thumb Code     0  dfixu.o(x$fpl$dfixu)
    _dfixu                                   0x08008ff9   Thumb Code    90  dfixu.o(x$fpl$dfixu)
    __aeabi_i2d                              0x08009053   Thumb Code     0  dflt_clz.o(x$fpl$dflt)
    _dflt                                    0x08009053   Thumb Code    46  dflt_clz.o(x$fpl$dflt)
    __aeabi_ui2d                             0x08009081   Thumb Code     0  dflt_clz.o(x$fpl$dfltu)
    _dfltu                                   0x08009081   Thumb Code    38  dflt_clz.o(x$fpl$dfltu)
    __aeabi_cdcmple                          0x080090a9   Thumb Code     0  dleqf.o(x$fpl$dleqf)
    _dcmple                                  0x080090a9   Thumb Code   120  dleqf.o(x$fpl$dleqf)
    __fpl_dcmple_InfNaN                      0x0800910b   Thumb Code     0  dleqf.o(x$fpl$dleqf)
    __aeabi_dmul                             0x08009121   Thumb Code     0  dmul.o(x$fpl$dmul)
    _dmul                                    0x08009121   Thumb Code   332  dmul.o(x$fpl$dmul)
    __fpl_dnaninf                            0x08009275   Thumb Code   156  dnaninf.o(x$fpl$dnaninf)
    __fpl_dretinf                            0x08009311   Thumb Code    12  dretinf.o(x$fpl$dretinf)
    __aeabi_cdrcmple                         0x0800931d   Thumb Code     0  drleqf.o(x$fpl$drleqf)
    _drcmple                                 0x0800931d   Thumb Code   108  drleqf.o(x$fpl$drleqf)
    __aeabi_dsub                             0x08009389   Thumb Code     0  daddsub_clz.o(x$fpl$dsub)
    _dsub                                    0x08009389   Thumb Code   464  daddsub_clz.o(x$fpl$dsub)
    __aeabi_f2d                              0x0800955d   Thumb Code     0  f2d.o(x$fpl$f2d)
    _f2d                                     0x0800955d   Thumb Code    86  f2d.o(x$fpl$f2d)
    __fpl_fnaninf                            0x080095b3   Thumb Code   140  fnaninf.o(x$fpl$fnaninf)
    _fp_init                                 0x0800963f   Thumb Code    10  fpinit.o(x$fpl$fpinit)
    __fplib_config_fpu_vfp                   0x08009647   Thumb Code     0  fpinit.o(x$fpl$fpinit)
    __fplib_config_pureend_doubles           0x08009647   Thumb Code     0  fpinit.o(x$fpl$fpinit)
    __fpl_fretinf                            0x08009649   Thumb Code    10  fretinf.o(x$fpl$fretinf)
    __I$use$fp                               0x08009652   Number         0  usenofp.o(x$fpl$usenofp)
    __lowest_bit_bitmap                      0x08009692   Data         256  kservice.o(.constdata)
    __rt_init_rti_start                      0x08009cb0   Data           4  components.o(.rti_fn.0)
    __rt_init_rti_board_start                0x08009cb4   Data           4  components.o(.rti_fn.0.end)
    __rt_init_rti_board_end                  0x08009cb8   Data           4  components.o(.rti_fn.1.end)
    __rt_init_rti_end                        0x08009cbc   Data           4  components.o(.rti_fn.6.end)
    Region$$Table$$Base                      0x08009cc0   Number         0  anon$$obj.o(Region$$Table)
    Region$$Table$$Limit                     0x08009ce0   Number         0  anon$$obj.o(Region$$Table)
    SystemCoreClock                          0x20000000   Data           4  system_n32g45x.o(.data)
    Wheel_perimeter                          0x20000004   Data           4  application.o(.data)
    Wheel_spacing                            0x20000008   Data           4  application.o(.data)
    Axle_spacing                             0x2000000c   Data           4  application.o(.data)
    Omni_turn_radiaus                        0x20000010   Data           4  application.o(.data)
    g_emCarMode                              0x20000014   Data           1  application.o(.data)
    Flag_Stop                                0x20000015   Data           1  application.o(.data)
    g_eControl_Mode                          0x20000016   Data           1  application.o(.data)
    g_ucRemote_Flag                          0x20000017   Data           1  application.o(.data)
    g_ucRos_Flag                             0x20000018   Data           1  application.o(.data)
    rc_ptr                                   0x2000001c   Data           4  application.o(.data)
    motorA_ptr                               0x20000020   Data           4  application.o(.data)
    motorB_ptr                               0x20000024   Data           4  application.o(.data)
    motorC_ptr                               0x20000028   Data           4  application.o(.data)
    motorD_ptr                               0x2000002c   Data           4  application.o(.data)
    guide_flag                               0x20000030   Data           1  charger.o(.data)
    ChipEndFlag                              0x20000031   Data           1  charger.o(.data)
    RGB_ChangeFlag                           0x20000032   Data           1  charger.o(.data)
    RGB_ArrayNum                             0x20000033   Data           1  charger.o(.data)
    high_count                               0x20000036   Data           2  charger.o(.data)
    Receive_i                                0x2000003c   Data           4  charger.o(.data)
    BitEnd                                   0x20000040   Data           4  charger.o(.data)
    RGB_i                                    0x20000044   Data           4  charger.o(.data)
    bit_i                                    0x20000048   Data           4  charger.o(.data)
    RGB_Array                                0x20000060   Data          72  charger.o(.data)
    RGB_Charging                             0x200000a8   Data          72  charger.o(.data)
    RGB_Charged                              0x200000f0   Data          72  charger.o(.data)
    RGB_Error                                0x20000138   Data          72  charger.o(.data)
    rt_interrupt_nest                        0x20000184   Data           1  irq.o(.data)
    rt_current_priority                      0x200001f0   Data           1  scheduler.o(.data)
    rt_current_thread                        0x200001f4   Data           4  scheduler.o(.data)
    rt_thread_ready_priority_group           0x200001f8   Data           4  scheduler.o(.data)
    rt_thread_defunct                        0x200001fc   Data           8  scheduler.o(.data)
    rt_interrupt_from_thread                 0x20000214   Data           4  cpuport.o(.data)
    rt_interrupt_to_thread                   0x20000218   Data           4  cpuport.o(.data)
    rt_thread_switch_interrupt_flag          0x2000021c   Data           4  cpuport.o(.data)
    send_number                              0x20000224   Data           4  user_can.o(.data)
    uart3_recv_flag                          0x2000022c   Data           1  usartx.o(.data)
    uart3_recv_len                           0x2000022d   Data           1  usartx.o(.data)
    uart3_send_flag                          0x2000022e   Data           1  usartx.o(.data)
    ucRcvReady                               0x2000022f   Data           1  usartx.o(.data)
    is_connect                               0x20000230   Data           1  usartx.o(.data)
    usart1_recv_flag                          0x20000234   Data           4  usartx.o(.data)
    usart1_recv_len                           0x20000238   Data           4  usartx.o(.data)
    usart1_send_len                           0x2000023c   Data           4  usartx.o(.data)
    usart1_send_flag                          0x20000240   Data           4  usartx.o(.data)
    uart4_recv_flag                          0x20000244   Data           4  usartx.o(.data)
    uart4_recv_len                           0x20000248   Data           4  usartx.o(.data)
    uart4_send_flag                          0x2000024c   Data           4  usartx.o(.data)
    ucRcvCount                               0x20000250   Data           4  usartx.o(.data)
    g_nVelocity                              0x20000254   Data           4  usartx.o(.data)
    g_nDirector                              0x20000258   Data           4  usartx.o(.data)
    g_fltRecv_Vel_X                          0x2000025c   Data           4  usartx.o(.data)
    g_fltRecv_Vel_Y                          0x20000260   Data           4  usartx.o(.data)
    g_fltRecv_Vel_Z                          0x20000264   Data           4  usartx.o(.data)
    remote_off_line_check                    0x20000268   Data           4  usartx.o(.data)
    g_ucLightOnFlag                          0x20000270   Data           1  usartx.o(.data)
    pxMBFrameCBByteReceived                  0x20000290   Data           4  mb.o(.data)
    pxMBFrameCBTransmitterEmpty              0x20000294   Data           4  mb.o(.data)
    pxMBPortCBTimerExpired                   0x20000298   Data           4  mb.o(.data)
    ucRTUBuf                                 0x20000324   Data           4  mbrtu.o(.data)
    Motor_Number                             0x20000330   Data           4  motor.o(.data)
    Slave_Number                             0x20000334   Data           4  motor.o(.data)
    motor_CANid_map                               0x20000338   Data           4  motor.o(.data)
    motor_model_map                            0x20000340   Data           8  motor.o(.data)
    ultrasonic_t1tig                         0x20000348   Data           1  balance.o(.data)
    ultrasonic_t2tig                         0x20000349   Data           1  balance.o(.data)
    f1_cnt                                   0x2000034a   Data           1  balance.o(.data)
    f2_cnt                                   0x2000034b   Data           1  balance.o(.data)
    SPI_ReadWriteCycle                       0x2000034c   Data           1  balance.o(.data)
    IrDA_SendState                           0x2000034d   Data           1  balance.o(.data)
    SendCout                                 0x2000034e   Data           1  balance.o(.data)
    SendGuide_Flag                           0x2000034f   Data           1  balance.o(.data)
    SendData                                 0x20000350   Data           1  balance.o(.data)
    IrDA_AlignOK                             0x20000351   Data           1  balance.o(.data)
    LimitSwitch_OK                           0x20000352   Data           1  balance.o(.data)
    CH_ON                                    0x20000353   Data           1  balance.o(.data)
    SPI_Master_Rx_Buffer                     0x20000355   Data           1  balance.o(.data)
    exio_input                               0x20000356   Data           1  balance.o(.data)
    exio_output                              0x20000357   Data           1  balance.o(.data)
    ReceiveData                              0x20000358   Data           1  balance.o(.data)
    emergency_stop                           0x20000359   Data           1  balance.o(.data)
    error_code                               0x2000035a   Data           2  balance.o(.data)
    Move_X                                   0x20000360   Data           4  balance.o(.data)
    Move_Y                                   0x20000364   Data           4  balance.o(.data)
    Move_Z                                   0x20000368   Data           4  balance.o(.data)
    g_nVol_get_Flag                          0x2000036c   Data           4  balance.o(.data)
    g_fltProprity_Voltage                    0x20000370   Data           4  balance.o(.data)
    ultrasonic_t1tig_time                    0x20000374   Data           4  balance.o(.data)
    ultrasonic_t2tig_time                    0x20000378   Data           4  balance.o(.data)
    ultrasonic_t1tig_heartbeat               0x2000037c   Data           4  balance.o(.data)
    ultrasonic_t2tig_heartbeat               0x20000380   Data           4  balance.o(.data)
    SPI_heartbeat                            0x20000384   Data           4  balance.o(.data)
    Send_i                                   0x20000388   Data           4  balance.o(.data)
    BitFree                                  0x2000038c   Data           4  balance.o(.data)
    FourWheer_Perimeter                      0x200003a4   Data           4  balance.o(.data)
    FourWheer_Conversion                     0x200003a8   Data           4  balance.o(.data)
    VelocityToRpmConversion                  0x200003ac   Data           4  balance.o(.data)
    AngularVelocityConversion                0x200003b0   Data           4  balance.o(.data)
    robot_control                            0x200003b4   Data           1  robot_select_init.o(.data)
    EncPos                                   0x200003bc   Data           4  rc_car.o(.data)
    ratio                                    0x200003c0   Data           4  rc_car.o(.data)
    encoder_accuracy                         0x200003c4   Data           4  rc_car.o(.data)
    tire_diameter                            0x200003c8   Data           4  rc_car.o(.data)
    tire_speed                               0x200003cc   Data           4  rc_car.o(.data)
    mileage                                  0x200003d0   Data           4  rc_car.o(.data)
    tire_speed_factor                        0x200003d4   Data           4  rc_car.o(.data)
    TIML                                     0x200003d8   Data           4  rc_car.o(.data)
    TIMA                                     0x200003dc   Data           4  rc_car.o(.data)
    TIMx                                     0x200003e0   Data           4  rc_car.o(.data)
    pdu                                      0x200003e4   Data           4  rc_car.o(.data)
    mileage_factor                           0x200003e8   Data           4  rc_car.o(.data)
    MOTOR_A                                  0x2000289c   Data          16  application.o(.bss)
    MOTOR_B                                  0x200028ac   Data          16  application.o(.bss)
    MOTOR_C                                  0x200028bc   Data          16  application.o(.bss)
    MOTOR_D                                  0x200028cc   Data          16  application.o(.bss)
    rt_thread_priority_table                 0x20002a74   Data         256  scheduler.o(.bss)
    usart1_recv_data                          0x20002b74   Data        2560  usartx.o(.bss)
    usart1_send_data                          0x20003574   Data         256  usartx.o(.bss)
    uart3_recv_data                          0x20003674   Data          25  usartx.o(.bss)
    uart3_send_data                          0x2000368d   Data          50  usartx.o(.bss)
    uart4_recv_data                          0x200036bf   Data         500  usartx.o(.bss)
    uart4_send_data                          0x200038b3   Data          25  usartx.o(.bss)
    Uart5_Buffer                             0x200038cc   Data         200  usartx.o(.bss)
    Send_Data                                0x20003994   Data          28  usartx.o(.bss)
    Receive_Data                             0x200039b0   Data          32  usartx.o(.bss)
    tagSBUS_CH                               0x200039d0   Data          34  usartx.o(.bss)
    PduData                                  0x200039f4   Data          20  mb.o(.bss)
    R_value                                  0x20003a08   Data          10  mb.o(.bss)
    mtd                                      0x20004204   Data         240  motor.o(.bss)
    mrd                                      0x200042f4   Data         240  motor.o(.bss)
    tagSmooth_control                        0x2000463c   Data          12  balance.o(.bss)
    light_time                               0x20004648   Data          68  balance.o(.bss)
    ultrasonic1_filtering                    0x2000468c   Data          16  balance.o(.bss)
    ultrasonic2_filtering                    0x2000469c   Data          16  balance.o(.bss)
    Robot_Parament                           0x200046ac   Data          20  robot_select_init.o(.bss)
    __libspace_start                         0x200046c0   Data          96  libspace.o(.bss)
    __temporary_stack_top$libspace           0x20004720   Data           0  libspace.o(.bss)



==============================================================================

Memory Map of the image

  Image Entry point : 0x08000279

  Load Region LR_1 (Base: 0x08000000, Size: 0x0000a0cc, Max: 0xffffffff, ABSOLUTE, COMPRESSED[0x00009dc4])

    Execution Region ER_RO (Exec base: 0x08000000, Load base: 0x08000000, Size: 0x00009ce0, Max: 0xffffffff, ABSOLUTE)

    Exec Addr    Load Addr    Size         Type   Attr      Idx    E Section Name        Object

    0x08000000   0x08000000   0x00000198   Data   RO            3    RESET               startup_n32g45x.o
    0x08000198   0x08000198   0x00000008   Code   RO         5393  * !!!main             c_w.l(__main.o)
    0x080001a0   0x080001a0   0x00000034   Code   RO         5618    !!!scatter          c_w.l(__scatter.o)
    0x080001d4   0x080001d4   0x0000005a   Code   RO         5616    !!dczerorl2         c_w.l(__dczerorl2.o)
    0x0800022e   0x0800022e   0x00000002   PAD
    0x08000230   0x08000230   0x0000001c   Code   RO         5620    !!handler_zi        c_w.l(__scatter_zi.o)
    0x0800024c   0x0800024c   0x00000002   Code   RO         5487    .ARM.Collect$$libinit$$00000000  c_w.l(libinit.o)
    0x0800024e   0x0800024e   0x00000004   Code   RO         5490    .ARM.Collect$$libinit$$00000001  c_w.l(libinit2.o)
    0x08000252   0x08000252   0x00000000   Code   RO         5493    .ARM.Collect$$libinit$$00000004  c_w.l(libinit2.o)
    0x08000252   0x08000252   0x00000000   Code   RO         5496    .ARM.Collect$$libinit$$0000000A  c_w.l(libinit2.o)
    0x08000252   0x08000252   0x00000000   Code   RO         5498    .ARM.Collect$$libinit$$0000000C  c_w.l(libinit2.o)
    0x08000252   0x08000252   0x00000000   Code   RO         5500    .ARM.Collect$$libinit$$0000000E  c_w.l(libinit2.o)
    0x08000252   0x08000252   0x00000000   Code   RO         5503    .ARM.Collect$$libinit$$00000011  c_w.l(libinit2.o)
    0x08000252   0x08000252   0x00000000   Code   RO         5505    .ARM.Collect$$libinit$$00000013  c_w.l(libinit2.o)
    0x08000252   0x08000252   0x00000000   Code   RO         5507    .ARM.Collect$$libinit$$00000015  c_w.l(libinit2.o)
    0x08000252   0x08000252   0x00000000   Code   RO         5509    .ARM.Collect$$libinit$$00000017  c_w.l(libinit2.o)
    0x08000252   0x08000252   0x00000000   Code   RO         5511    .ARM.Collect$$libinit$$00000019  c_w.l(libinit2.o)
    0x08000252   0x08000252   0x00000000   Code   RO         5513    .ARM.Collect$$libinit$$0000001B  c_w.l(libinit2.o)
    0x08000252   0x08000252   0x00000000   Code   RO         5515    .ARM.Collect$$libinit$$0000001D  c_w.l(libinit2.o)
    0x08000252   0x08000252   0x00000000   Code   RO         5517    .ARM.Collect$$libinit$$0000001F  c_w.l(libinit2.o)
    0x08000252   0x08000252   0x00000000   Code   RO         5519    .ARM.Collect$$libinit$$00000021  c_w.l(libinit2.o)
    0x08000252   0x08000252   0x00000000   Code   RO         5521    .ARM.Collect$$libinit$$00000023  c_w.l(libinit2.o)
    0x08000252   0x08000252   0x00000000   Code   RO         5523    .ARM.Collect$$libinit$$00000025  c_w.l(libinit2.o)
    0x08000252   0x08000252   0x00000000   Code   RO         5527    .ARM.Collect$$libinit$$0000002C  c_w.l(libinit2.o)
    0x08000252   0x08000252   0x00000000   Code   RO         5529    .ARM.Collect$$libinit$$0000002E  c_w.l(libinit2.o)
    0x08000252   0x08000252   0x00000000   Code   RO         5531    .ARM.Collect$$libinit$$00000030  c_w.l(libinit2.o)
    0x08000252   0x08000252   0x00000000   Code   RO         5533    .ARM.Collect$$libinit$$00000032  c_w.l(libinit2.o)
    0x08000252   0x08000252   0x00000002   Code   RO         5534    .ARM.Collect$$libinit$$00000033  c_w.l(libinit2.o)
    0x08000254   0x08000254   0x00000002   Code   RO         5554    .ARM.Collect$$libshutdown$$00000000  c_w.l(libshutdown.o)
    0x08000256   0x08000256   0x00000000   Code   RO         5567    .ARM.Collect$$libshutdown$$00000002  c_w.l(libshutdown2.o)
    0x08000256   0x08000256   0x00000000   Code   RO         5569    .ARM.Collect$$libshutdown$$00000004  c_w.l(libshutdown2.o)
    0x08000256   0x08000256   0x00000000   Code   RO         5571    .ARM.Collect$$libshutdown$$00000006  c_w.l(libshutdown2.o)
    0x08000256   0x08000256   0x00000000   Code   RO         5574    .ARM.Collect$$libshutdown$$00000009  c_w.l(libshutdown2.o)
    0x08000256   0x08000256   0x00000000   Code   RO         5577    .ARM.Collect$$libshutdown$$0000000C  c_w.l(libshutdown2.o)
    0x08000256   0x08000256   0x00000000   Code   RO         5579    .ARM.Collect$$libshutdown$$0000000E  c_w.l(libshutdown2.o)
    0x08000256   0x08000256   0x00000000   Code   RO         5582    .ARM.Collect$$libshutdown$$00000011  c_w.l(libshutdown2.o)
    0x08000256   0x08000256   0x00000002   Code   RO         5583    .ARM.Collect$$libshutdown$$00000012  c_w.l(libshutdown2.o)
    0x08000258   0x08000258   0x00000000   Code   RO         5439    .ARM.Collect$$rtentry$$00000000  c_w.l(__rtentry.o)
    0x08000258   0x08000258   0x00000000   Code   RO         5454    .ARM.Collect$$rtentry$$00000002  c_w.l(__rtentry2.o)
    0x08000258   0x08000258   0x00000006   Code   RO         5466    .ARM.Collect$$rtentry$$00000004  c_w.l(__rtentry4.o)
    0x0800025e   0x0800025e   0x00000000   Code   RO         5456    .ARM.Collect$$rtentry$$00000009  c_w.l(__rtentry2.o)
    0x0800025e   0x0800025e   0x00000004   Code   RO         5457    .ARM.Collect$$rtentry$$0000000A  c_w.l(__rtentry2.o)
    0x08000262   0x08000262   0x00000000   Code   RO         5459    .ARM.Collect$$rtentry$$0000000C  c_w.l(__rtentry2.o)
    0x08000262   0x08000262   0x00000008   Code   RO         5460    .ARM.Collect$$rtentry$$0000000D  c_w.l(__rtentry2.o)
    0x0800026a   0x0800026a   0x00000002   Code   RO         5488    .ARM.Collect$$rtexit$$00000000  c_w.l(rtexit.o)
    0x0800026c   0x0800026c   0x00000000   Code   RO         5536    .ARM.Collect$$rtexit$$00000002  c_w.l(rtexit2.o)
    0x0800026c   0x0800026c   0x00000004   Code   RO         5537    .ARM.Collect$$rtexit$$00000003  c_w.l(rtexit2.o)
    0x08000270   0x08000270   0x00000006   Code   RO         5538    .ARM.Collect$$rtexit$$00000004  c_w.l(rtexit2.o)
    0x08000276   0x08000276   0x00000002   PAD
    0x08000278   0x08000278   0x00000040   Code   RO            4  * .text               startup_n32g45x.o
    0x080002b8   0x080002b8   0x00000134   Code   RO         3778    .text               context_rvds.o
    0x080003ec   0x080003ec   0x0000008a   Code   RO         5383    .text               c_w.l(rt_memcpy_v6.o)
    0x08000476   0x08000476   0x00000064   Code   RO         5385    .text               c_w.l(rt_memcpy_w.o)
    0x080004da   0x080004da   0x00000044   Code   RO         5387    .text               c_w.l(rt_memclr.o)
    0x0800051e   0x0800051e   0x0000004e   Code   RO         5389    .text               c_w.l(rt_memclr_w.o)
    0x0800056c   0x0800056c   0x00000006   Code   RO         5391    .text               c_w.l(heapauxi.o)
    0x08000572   0x08000572   0x00000016   Code   RO         5440    .text               c_w.l(_rserrno.o)
    0x08000588   0x08000588   0x00000008   Code   RO         5471    .text               c_w.l(rt_errno_addr_intlibspace.o)
    0x08000590   0x08000590   0x00000008   Code   RO         5475    .text               c_w.l(libspace.o)
    0x08000598   0x08000598   0x0000004a   Code   RO         5478    .text               c_w.l(sys_stackheap_outer.o)
    0x080005e2   0x080005e2   0x00000012   Code   RO         5480    .text               c_w.l(exit.o)
    0x080005f4   0x080005f4   0x0000000c   Code   RO         5546    .text               c_w.l(sys_exit.o)
    0x08000600   0x08000600   0x00000002   Code   RO         5557    .text               c_w.l(use_no_semi.o)
    0x08000602   0x08000602   0x00000000   Code   RO         5559    .text               c_w.l(indicate_semi.o)
    0x08000602   0x08000602   0x0000000a   Code   RO         2066    i.ADC_ClearFlag     n32g45x_adc.o
    0x0800060c   0x0800060c   0x00000084   Code   RO         2071    i.ADC_ConfigClk     n32g45x_adc.o
    0x08000690   0x08000690   0x000000a8   Code   RO         2077    i.ADC_ConfigRegularChannel  n32g45x_adc.o
    0x08000738   0x08000738   0x0000001c   Code   RO         2079    i.ADC_Enable        n32g45x_adc.o
    0x08000754   0x08000754   0x00000012   Code   RO         2086    i.ADC_EnableSoftwareStartConv  n32g45x_adc.o
    0x08000766   0x08000766   0x00000018   Code   RO         2089    i.ADC_GetCalibrationStatus  n32g45x_adc.o
    0x0800077e   0x0800077e   0x00000006   Code   RO         2090    i.ADC_GetDat        n32g45x_adc.o
    0x08000784   0x08000784   0x00000062   Code   RO         4424    i.ADC_GetData       user_adc.o
    0x080007e6   0x080007e6   0x0000000e   Code   RO         2092    i.ADC_GetFlagStatus  n32g45x_adc.o
    0x080007f4   0x080007f4   0x0000000e   Code   RO         2093    i.ADC_GetFlagStatusNew  n32g45x_adc.o
    0x08000802   0x08000802   0x00000002   PAD
    0x08000804   0x08000804   0x00000050   Code   RO         2098    i.ADC_Init          n32g45x_adc.o
    0x08000854   0x08000854   0x00000050   Code   RO         4425    i.ADC_Initial       user_adc.o
    0x080008a4   0x080008a4   0x00000018   Code   RO         2106    i.ADC_StartCalibration  n32g45x_adc.o
    0x080008bc   0x080008bc   0x00000148   Code   RO         4426    i.ADC_task          user_adc.o
    0x08000a04   0x08000a04   0x00000008   Code   RO         4136    i.Abs_int           usartx.o
    0x08000a0c   0x08000a0c   0x0000009c   Code   RO         4427    i.Adc_Init          user_adc.o
    0x08000aa8   0x08000aa8   0x000006e0   Code   RO         5066    i.Balance_task      balance.o
    0x08001188   0x08001188   0x00000078   Code   RO         5067    i.BatteryInfoInit   balance.o
    0x08001200   0x08001200   0x00000228   Code   RO         5068    i.BatteryInformation  balance.o
    0x08001428   0x08001428   0x00000002   Code   RO         2651    i.BusFault_Handler  n32g45x_it.o
    0x0800142a   0x0800142a   0x00000002   PAD
    0x0800142c   0x0800142c   0x000000f0   Code   RO          237    i.CAN1_InitFilter   n32g45x_can.o
    0x0800151c   0x0800151c   0x000000f0   Code   RO          238    i.CAN2_InitFilter   n32g45x_can.o
    0x0800160c   0x0800160c   0x0000001c   Code   RO         3895    i.CAN2_RX0_IRQHandler  user_can.o
    0x08001628   0x08001628   0x00000034   Code   RO          240    i.CAN_ClearFlag     n32g45x_can.o
    0x0800165c   0x0800165c   0x000000fc   Code   RO         3896    i.CAN_Config        user_can.o
    0x08001758   0x08001758   0x0000003a   Code   RO          242    i.CAN_DeInit        n32g45x_can.o
    0x08001792   0x08001792   0x00000010   Code   RO          251    i.CAN_INTConfig     n32g45x_can.o
    0x080017a2   0x080017a2   0x00000002   PAD
    0x080017a4   0x080017a4   0x000000f4   Code   RO          252    i.CAN_Init          n32g45x_can.o
    0x08001898   0x08001898   0x00000020   Code   RO          253    i.CAN_InitStruct    n32g45x_can.o
    0x080018b8   0x080018b8   0x000000b4   Code   RO          256    i.CAN_ReceiveMessage  n32g45x_can.o
    0x0800196c   0x0800196c   0x000000e6   Code   RO          258    i.CAN_TransmitMessage  n32g45x_can.o
    0x08001a52   0x08001a52   0x00000002   PAD
    0x08001a54   0x08001a54   0x000001b0   Code   RO         3902    i.CanIRQProcess     user_can.o
    0x08001c04   0x08001c04   0x00000094   Code   RO         3903    i.CanIRQProcessFor8015D  user_can.o
    0x08001c98   0x08001c98   0x000000bc   Code   RO         3904    i.Can_Driver_Init   user_can.o
    0x08001d54   0x08001d54   0x00000170   Code   RO         3905    i.Can_task          user_can.o
    0x08001ec4   0x08001ec4   0x00000288   Code   RO         5070    i.Car_Light_Control  balance.o
    0x0800214c   0x0800214c   0x00000054   Code   RO         2739    i.ChargeDetection_Init  charger.o
    0x080021a0   0x080021a0   0x0000007a   Code   RO         1075    i.ConfigTI2         n32g45x_tim.o
    0x0800221a   0x0800221a   0x00000002   PAD
    0x0800221c   0x0800221c   0x000000e8   Code   RO         4138    i.DATA_task         usartx.o
    0x08002304   0x08002304   0x00000038   Code   RO         4139    i.DMA1_Channel2_IRQHandler  usartx.o
    0x0800233c   0x0800233c   0x0000003c   Code   RO         4141    i.DMA1_Channel4_IRQHandler  usartx.o
    0x08002378   0x08002378   0x00000068   Code   RO         4143    i.DMA2_Channel5_IRQHandler  usartx.o
    0x080023e0   0x080023e0   0x00000004   Code   RO          400    i.DMA_ClrIntPendingBit  n32g45x_dma.o
    0x080023e4   0x080023e4   0x00000010   Code   RO          401    i.DMA_ConfigInt     n32g45x_dma.o
    0x080023f4   0x080023f4   0x00000144   Code   RO          402    i.DMA_DeInit        n32g45x_dma.o
    0x08002538   0x08002538   0x00000014   Code   RO          403    i.DMA_EnableChannel  n32g45x_dma.o
    0x0800254c   0x0800254c   0x00000006   Code   RO          404    i.DMA_GetCurrDataCounter  n32g45x_dma.o
    0x08002552   0x08002552   0x0000000e   Code   RO          406    i.DMA_GetIntStatus  n32g45x_dma.o
    0x08002560   0x08002560   0x00000052   Code   RO          407    i.DMA_Init          n32g45x_dma.o
    0x080025b2   0x080025b2   0x00000010   Code   RO          408    i.DMA_RequestRemap  n32g45x_dma.o
    0x080025c2   0x080025c2   0x00000004   Code   RO          409    i.DMA_SetCurrDataCounter  n32g45x_dma.o
    0x080025c6   0x080025c6   0x0000001a   Code   RO          410    i.DMA_StructInit    n32g45x_dma.o
    0x080025e0   0x080025e0   0x00000300   Code   RO         4144    i.Data_transition   usartx.o
    0x080028e0   0x080028e0   0x00000002   Code   RO         2652    i.DebugMon_Handler  n32g45x_it.o
    0x080028e2   0x080028e2   0x00000002   PAD
    0x080028e4   0x080028e4   0x00000164   Code   RO         5071    i.Drive_Motor       balance.o
    0x08002a48   0x08002a48   0x00000074   Code   RO         2653    i.EXTI4_IRQHandler  n32g45x_it.o
    0x08002abc   0x08002abc   0x00000060   Code   RO         2654    i.EXTI9_5_IRQHandler  n32g45x_it.o
    0x08002b1c   0x08002b1c   0x0000000c   Code   RO         2334    i.EXTI_ClrITPendBit  n32g45x_exti.o
    0x08002b28   0x08002b28   0x00000020   Code   RO         2337    i.EXTI_GetITStatus  n32g45x_exti.o
    0x08002b48   0x08002b48   0x00000010   Code   RO          489    i.FLASH_ClearFlag   n32g45x_flash.o
    0x08002b58   0x08002b58   0x00000048   Code   RO          493    i.FLASH_EraseOnePage  n32g45x_flash.o
    0x08002ba0   0x08002ba0   0x00000010   Code   RO          503    i.FLASH_Lock        n32g45x_flash.o
    0x08002bb0   0x08002bb0   0x00000018   Code   RO          505    i.FLASH_PrefetchBufSet  n32g45x_flash.o
    0x08002bc8   0x08002bc8   0x0000004c   Code   RO          507    i.FLASH_ProgramWord  n32g45x_flash.o
    0x08002c14   0x08002c14   0x00000014   Code   RO          510    i.FLASH_SetLatency  n32g45x_flash.o
    0x08002c28   0x08002c28   0x00000018   Code   RO          512    i.FLASH_Unlock      n32g45x_flash.o
    0x08002c40   0x08002c40   0x00000094   Code   RO          513    i.FLASH_WaitForLastOpt  n32g45x_flash.o
    0x08002cd4   0x08002cd4   0x00000018   Code   RO          514    i.FLASH_iCacheCmd   n32g45x_flash.o
    0x08002cec   0x08002cec   0x00000158   Code   RO          670    i.GPIO_ConfigPinRemap  n32g45x_gpio.o
    0x08002e44   0x08002e44   0x000000d8   Code   RO          672    i.GPIO_DeInit       n32g45x_gpio.o
    0x08002f1c   0x08002f1c   0x000000ae   Code   RO          674    i.GPIO_InitPeripheral  n32g45x_gpio.o
    0x08002fca   0x08002fca   0x00000010   Code   RO          675    i.GPIO_InitStruct   n32g45x_gpio.o
    0x08002fda   0x08002fda   0x0000000e   Code   RO          677    i.GPIO_ReadInputDataBit  n32g45x_gpio.o
    0x08002fe8   0x08002fe8   0x0000000e   Code   RO          679    i.GPIO_ReadOutputDataBit  n32g45x_gpio.o
    0x08002ff6   0x08002ff6   0x00000004   Code   RO          680    i.GPIO_ResetBits    n32g45x_gpio.o
    0x08002ffa   0x08002ffa   0x00000004   Code   RO          681    i.GPIO_SetBits      n32g45x_gpio.o
    0x08002ffe   0x08002ffe   0x0000000a   Code   RO          684    i.GPIO_WriteBit     n32g45x_gpio.o
    0x08003008   0x08003008   0x000001e0   Code   RO         5072    i.Get_Motor_Velocity  balance.o
    0x080031e8   0x080031e8   0x000000ac   Code   RO         2740    i.IC_Init           charger.o
    0x08003294   0x08003294   0x0000002c   Code   RO         2741    i.IR_RX_Init        charger.o
    0x080032c0   0x080032c0   0x00000010   Code   RO         2409    i.IWDG_ReloadKey    n32g45x_iwdg.o
    0x080032d0   0x080032d0   0x0000000c   Code   RO         2410    i.IWDG_SetPrescalerDiv  n32g45x_iwdg.o
    0x080032dc   0x080032dc   0x0000000c   Code   RO         2411    i.IWDG_WriteConfig  n32g45x_iwdg.o
    0x080032e8   0x080032e8   0x00000304   Code   RO         2460    i.InitTask          application.o
    0x080035ec   0x080035ec   0x000000b8   Code   RO         2742    i.IrDA_ReceiveData  charger.o
    0x080036a4   0x080036a4   0x000000b0   Code   RO         5077    i.IrDA_SendData     balance.o
    0x08003754   0x08003754   0x00000014   Code   RO         3907    i.IsSdoEmpty        user_can.o
    0x08003768   0x08003768   0x00000028   Code   RO         4146    i.JTAG_Set          usartx.o
    0x08003790   0x08003790   0x00000180   Code   RO         4472    i.Jump_To_BOOT      mb.o
    0x08003910   0x08003910   0x00000044   Code   RO         2743    i.Key_Change_RGB    charger.o
    0x08003954   0x08003954   0x00000038   Code   RO         2744    i.Key_Init          charger.o
    0x0800398c   0x0800398c   0x000001c4   Code   RO         3841    i.GPIO_Init          led.o
    0x08003b50   0x08003b50   0x00000008   Code   RO         3842    i.LedBlink          led.o
    0x08003b58   0x08003b58   0x0000002c   Code   RO         2745    i.LimitSwitch_Init  charger.o
    0x08003b84   0x08003b84   0x00000220   Code   RO         4473    i.MB_Analyze_Execute  mb.o
    0x08003da4   0x08003da4   0x00000378   Code   RO         4477    i.MB_RSP            mb.o
    0x0800411c   0x0800411c   0x00000002   Code   RO         2655    i.MemManage_Handler  n32g45x_it.o
    0x0800411e   0x0800411e   0x00000002   PAD
    0x08004120   0x08004120   0x00000128   Code   RO         4147    i.Modbus_task       usartx.o
    0x08004248   0x08004248   0x00000080   Code   RO         5014    i.Motor        motor.o
    0x080042c8   0x080042c8   0x00000140   Code   RO         5016    i.Motor_task   motor.o
    0x08004408   0x08004408   0x00000268   Code   RO         5017    i.Motor_task        motor.o
    0x08004670   0x08004670   0x00000030   Code   RO         5299    i.MyFLASH_ReadByte  flash_wr.o
    0x080046a0   0x080046a0   0x00000050   Code   RO         5300    i.MyFLASH_WriteWord  flash_wr.o
    0x080046f0   0x080046f0   0x00000002   Code   RO         2656    i.NMI_Handler       n32g45x_it.o
    0x080046f2   0x080046f2   0x0000001c   Code   RO         3908    i.NMT_Control       user_can.o
    0x0800470e   0x0800470e   0x0000003a   Code   RO         2746    i.NVIC_Config       charger.o
    0x08004748   0x08004748   0x00000074   Code   RO          160    i.NVIC_Init         misc.o
    0x080047bc   0x080047bc   0x00000014   Code   RO          161    i.NVIC_PriorityGroupConfig  misc.o
    0x080047d0   0x080047d0   0x000000b0   Code   RO         3909    i.PLAN_PDO_Config   user_can.o
    0x08004880   0x08004880   0x00000234   Code   RO         4149    i.Pdu_Init          usartx.o
    0x08004ab4   0x08004ab4   0x00000004   PAD
    0x08004ab8   0x08004ab8   0x00000300   Code   RO         5335    i.RCCAR_Init        rc_car.o
    0x08004db8   0x08004db8   0x000000b8   Code   RO         5336    i.RCCAR_Process     rc_car.o
    0x08004e70   0x08004e70   0x00000014   Code   RO          800    i.RCC_ConfigAdc1mClk  n32g45x_rcc.o
    0x08004e84   0x08004e84   0x00000014   Code   RO          801    i.RCC_ConfigAdcHclk  n32g45x_rcc.o
    0x08004e98   0x08004e98   0x0000001c   Code   RO          802    i.RCC_ConfigAdcPllClk  n32g45x_rcc.o
    0x08004eb4   0x08004eb4   0x00000014   Code   RO          804    i.RCC_ConfigHclk    n32g45x_rcc.o
    0x08004ec8   0x08004ec8   0x00000014   Code   RO          810    i.RCC_ConfigPclk1   n32g45x_rcc.o
    0x08004edc   0x08004edc   0x00000014   Code   RO          811    i.RCC_ConfigPclk2   n32g45x_rcc.o
    0x08004ef0   0x08004ef0   0x00000018   Code   RO          812    i.RCC_ConfigPll     n32g45x_rcc.o
    0x08004f08   0x08004f08   0x00000014   Code   RO          815    i.RCC_ConfigSysclk  n32g45x_rcc.o
    0x08004f1c   0x08004f1c   0x00000050   Code   RO          819    i.RCC_DeInit        n32g45x_rcc.o
    0x08004f6c   0x08004f6c   0x00000018   Code   RO          820    i.RCC_EnableAHBPeriphClk  n32g45x_rcc.o
    0x08004f84   0x08004f84   0x00000018   Code   RO          822    i.RCC_EnableAPB1PeriphClk  n32g45x_rcc.o
    0x08004f9c   0x08004f9c   0x00000018   Code   RO          823    i.RCC_EnableAPB1PeriphReset  n32g45x_rcc.o
    0x08004fb4   0x08004fb4   0x00000018   Code   RO          824    i.RCC_EnableAPB2PeriphClk  n32g45x_rcc.o
    0x08004fcc   0x08004fcc   0x00000018   Code   RO          825    i.RCC_EnableAPB2PeriphReset  n32g45x_rcc.o
    0x08004fe4   0x08004fe4   0x0000000c   Code   RO          829    i.RCC_EnableHsi     n32g45x_rcc.o
    0x08004ff0   0x08004ff0   0x0000000c   Code   RO          831    i.RCC_EnablePll     n32g45x_rcc.o
    0x08004ffc   0x08004ffc   0x000000e0   Code   RO          834    i.RCC_GetClocksFreqValue  n32g45x_rcc.o
    0x080050dc   0x080050dc   0x00000030   Code   RO          836    i.RCC_GetFlagStatus  n32g45x_rcc.o
    0x0800510c   0x0800510c   0x00000010   Code   RO          838    i.RCC_GetSysclkSrc  n32g45x_rcc.o
    0x0800511c   0x0800511c   0x000000b4   Code   RO         2747    i.RGB_Init          charger.o
    0x080051d0   0x080051d0   0x00000088   Code   RO         2749    i.RGB_SetValue      charger.o
    0x08005258   0x08005258   0x00000090   Code   RO         2750    i.RGB_ShowCharged   charger.o
    0x080052e8   0x080052e8   0x00000090   Code   RO         2751    i.RGB_ShowCharging  charger.o
    0x08005378   0x08005378   0x00000090   Code   RO         2752    i.RGB_ShowError     charger.o
    0x08005408   0x08005408   0x00000034   Code   RO         2753    i.Relay_Init        charger.o
    0x0800543c   0x0800543c   0x000000dc   Code   RO         5271    i.Robot_Select      robot_select_init.o
    0x08005518   0x08005518   0x0000003c   Code   RO         2657    i.SPI1_IRQHandler   n32g45x_it.o
    0x08005554   0x08005554   0x00000012   Code   RO         1914    i.SPI_Enable        n32g45x_spi.o
    0x08005566   0x08005566   0x0000001a   Code   RO         1922    i.SPI_I2S_EnableInt  n32g45x_spi.o
    0x08005580   0x08005580   0x0000000e   Code   RO         1924    i.SPI_I2S_GetStatus  n32g45x_spi.o
    0x0800558e   0x0800558e   0x00000054   Code   RO         1927    i.SPI_Init          n32g45x_spi.o
    0x080055e2   0x080055e2   0x00000002   Code   RO         2658    i.SVC_Handler       n32g45x_it.o
    0x080055e4   0x080055e4   0x00000034   Code   RO         3913    i.SdoFramCereat     user_can.o
    0x08005618   0x08005618   0x0000029c   Code   RO         4153    i.SetReal_Velocity  usartx.o
    0x080058b4   0x080058b4   0x00000198   Code   RO         4154    i.Set_Director      usartx.o
    0x08005a4c   0x08005a4c   0x00000006   Code   RO         2461    i.Soft_Reset        application.o
    0x08005a52   0x08005a52   0x00000012   Code   RO         3786    i.SysTick_Handler   bsp.o
    0x08005a64   0x08005a64   0x0000019c   Code   RO           14    i.SystemInit        system_n32g45x.o
    0x08005c00   0x08005c00   0x00000090   Code   RO         2754    i.TIM1_UP_IRQHandler  charger.o
    0x08005c90   0x08005c90   0x00000024   Code   RO         2659    i.TIM3_IRQHandler   n32g45x_it.o
    0x08005cb4   0x08005cb4   0x0000002c   Code   RO         2660    i.TIM4_IRQHandler   n32g45x_it.o
    0x08005ce0   0x08005ce0   0x0000002c   Code   RO         2755    i.TIM5_IRQHandler   charger.o
    0x08005d0c   0x08005d0c   0x00000006   Code   RO         1076    i.TIM_ClearFlag     n32g45x_tim.o
    0x08005d12   0x08005d12   0x00000006   Code   RO         1077    i.TIM_ClrIntPendingBit  n32g45x_tim.o
    0x08005d18   0x08005d18   0x00000012   Code   RO         1084    i.TIM_ConfigArPreload  n32g45x_tim.o
    0x08005d2a   0x08005d2a   0x0000003c   Code   RO         1088    i.TIM_ConfigEncoderInterface  n32g45x_tim.o
    0x08005d66   0x08005d66   0x00000010   Code   RO         1099    i.TIM_ConfigInt     n32g45x_tim.o
    0x08005d76   0x08005d76   0x0000000c   Code   RO         1105    i.TIM_ConfigOc1Preload  n32g45x_tim.o
    0x08005d82   0x08005d82   0x00000014   Code   RO         1109    i.TIM_ConfigOc2Preload  n32g45x_tim.o
    0x08005d96   0x08005d96   0x00000014   Code   RO         1116    i.TIM_ConfigOc4Preload  n32g45x_tim.o
    0x08005daa   0x08005daa   0x00000002   PAD
    0x08005dac   0x08005dac   0x00000158   Code   RO         1124    i.TIM_ConfigPwmIc   n32g45x_tim.o
    0x08005f04   0x08005f04   0x000000f4   Code   RO         1126    i.TIM_DeInit        n32g45x_tim.o
    0x08005ff8   0x08005ff8   0x00000012   Code   RO         1127    i.TIM_Enable        n32g45x_tim.o
    0x0800600a   0x0800600a   0x00000016   Code   RO         1131    i.TIM_EnableCtrlPwmOutputs  n32g45x_tim.o
    0x08006020   0x08006020   0x00000004   Code   RO         1138    i.TIM_GetCap2       n32g45x_tim.o
    0x08006024   0x08006024   0x00000004   Code   RO         1143    i.TIM_GetCnt        n32g45x_tim.o
    0x08006028   0x08006028   0x00000016   Code   RO         1145    i.TIM_GetIntStatus  n32g45x_tim.o
    0x0800603e   0x0800603e   0x00000002   PAD
    0x08006040   0x08006040   0x000001bc   Code   RO         1147    i.TIM_ICInit        n32g45x_tim.o
    0x080061fc   0x080061fc   0x00000010   Code   RO         1149    i.TIM_InitIcStruct  n32g45x_tim.o
    0x0800620c   0x0800620c   0x00000068   Code   RO         1150    i.TIM_InitOc1       n32g45x_tim.o
    0x08006274   0x08006274   0x0000007c   Code   RO         1151    i.TIM_InitOc2       n32g45x_tim.o
    0x080062f0   0x080062f0   0x00000062   Code   RO         1153    i.TIM_InitOc4       n32g45x_tim.o
    0x08006352   0x08006352   0x00000014   Code   RO         1156    i.TIM_InitOcStruct  n32g45x_tim.o
    0x08006366   0x08006366   0x0000001e   Code   RO         1157    i.TIM_InitTimBaseStruct  n32g45x_tim.o
    0x08006384   0x08006384   0x00000138   Code   RO         1158    i.TIM_InitTimeBase  n32g45x_tim.o
    0x080064bc   0x080064bc   0x0000000c   Code   RO         1163    i.TIM_SelectInputTrig  n32g45x_tim.o
    0x080064c8   0x080064c8   0x00000010   Code   RO         1168    i.TIM_SelectSlaveMode  n32g45x_tim.o
    0x080064d8   0x080064d8   0x00000004   Code   RO         1171    i.TIM_SetCmp1       n32g45x_tim.o
    0x080064dc   0x080064dc   0x00000004   Code   RO         1172    i.TIM_SetCmp2       n32g45x_tim.o
    0x080064e0   0x080064e0   0x00000006   Code   RO         1174    i.TIM_SetCmp4       n32g45x_tim.o
    0x080064e6   0x080064e6   0x00000004   Code   RO         1177    i.TIM_SetCnt        n32g45x_tim.o
    0x080064ea   0x080064ea   0x00000002   PAD
    0x080064ec   0x080064ec   0x00000030   Code   RO         4155    i.Target_Direct_get  usartx.o
    0x0800651c   0x0800651c   0x0000004c   Code   RO         4157    i.UART4_IRQHandler  usartx.o
    0x08006568   0x08006568   0x000000b8   Code   RO         4158    i.UART5_IRQHandler  usartx.o
    0x08006620   0x08006620   0x00000048   Code   RO         4159    i.USART1_IRQHandler  usartx.o
    0x08006668   0x08006668   0x000000b4   Code   RO         4160    i.Usart1_Init       usartx.o
    0x0800671c   0x0800671c   0x0000006c   Code   RO         4161    i.USART3_IRQHandler  usartx.o
    0x08006788   0x08006788   0x00000006   Code   RO         1731    i.USART_ClrFlag     n32g45x_usart.o
    0x0800678e   0x0800678e   0x00000030   Code   RO         1733    i.USART_ConfigInt   n32g45x_usart.o
    0x080067be   0x080067be   0x000000e4   Code   RO         1737    i.USART_DeInit      n32g45x_usart.o
    0x080068a2   0x080068a2   0x00000012   Code   RO         1738    i.USART_Enable      n32g45x_usart.o
    0x080068b4   0x080068b4   0x00000010   Code   RO         1739    i.USART_EnableDMA   n32g45x_usart.o
    0x080068c4   0x080068c4   0x0000004c   Code   RO         1746    i.USART_GetIntStatus  n32g45x_usart.o
    0x08006910   0x08006910   0x000000b4   Code   RO         1747    i.USART_Init        n32g45x_usart.o
    0x080069c4   0x080069c4   0x00000008   Code   RO         1748    i.USART_ReceiveData  n32g45x_usart.o
    0x080069cc   0x080069cc   0x0000001c   Code   RO         3914    i.USB_LP_CAN1_RX0_IRQHandler  user_can.o
    0x080069e8   0x080069e8   0x00000144   Code   RO         5089    i.Ultrasonic1_task  balance.o
    0x08006b2c   0x08006b2c   0x00000128   Code   RO         5090    i.Ultrasonic2_task  balance.o
    0x08006c54   0x08006c54   0x0000002a   Code   RO         3845    i.UltrasonicSetEnable  led.o
    0x08006c7e   0x08006c7e   0x00000002   PAD
    0x08006c80   0x08006c80   0x00000128   Code   RO         4162    i.Sbus_Data_Parsing       usartx.o
    0x08006da8   0x08006da8   0x00000002   Code   RO         2661    i.UsageFault_Handler  n32g45x_it.o
    0x08006daa   0x08006daa   0x00000002   PAD
    0x08006dac   0x08006dac   0x000000ac   Code   RO         4163    i.Usart3_Init       usartx.o
    0x08006e58   0x08006e58   0x000000f8   Code   RO         4164    i.Uart4_Init       usartx.o
    0x08006f50   0x08006f50   0x00000138   Code   RO         4165    i.Uart5_Init       usartx.o
    0x08007088   0x08007088   0x0000009c   Code   RO         3915    i.WANZER_PDO_Config  user_can.o
    0x08007124   0x08007124   0x00000088   Code   RO         3916    i.ZLAC8015D_PDO_Config  user_can.o
    0x080071ac   0x080071ac   0x0000009c   Code   RO         3917    i.ZLAC8015_PDO_Config  user_can.o
    0x08007248   0x08007248   0x00000048   Code   RO         3169    i.__rt_ffs          kservice.o
    0x08007290   0x08007290   0x00000024   Code   RO         4481    i.eMBEnable         mb.o
    0x080072b4   0x080072b4   0x00000062   Code   RO         4818    i.eMBFuncReadCoils  mbfunccoils.o
    0x08007316   0x08007316   0x00000064   Code   RO         4857    i.eMBFuncReadDiscreteInputs  mbfuncdisc.o
    0x0800737a   0x0800737a   0x0000004a   Code   RO         4881    i.eMBFuncReadHoldingRegister  mbfuncholding.o
    0x080073c4   0x080073c4   0x00000050   Code   RO         4923    i.eMBFuncReadInputRegister  mbfuncinput.o
    0x08007414   0x08007414   0x00000062   Code   RO         4882    i.eMBFuncReadWriteMultipleHoldingRegister  mbfuncholding.o
    0x08007476   0x08007476   0x00000002   PAD
    0x08007478   0x08007478   0x00000024   Code   RO         4947    i.eMBFuncReportSlaveID  mbfuncother.o
    0x0800749c   0x0800749c   0x0000002c   Code   RO         4819    i.eMBFuncWriteCoil  mbfunccoils.o
    0x080074c8   0x080074c8   0x00000018   Code   RO         4883    i.eMBFuncWriteHoldingRegister  mbfuncholding.o
    0x080074e0   0x080074e0   0x00000050   Code   RO         4820    i.eMBFuncWriteMultipleCoils  mbfunccoils.o
    0x08007530   0x08007530   0x00000040   Code   RO         4884    i.eMBFuncWriteMultipleHoldingRegister  mbfuncholding.o
    0x08007570   0x08007570   0x0000007c   Code   RO         4482    i.eMBInit           mb.o
    0x080075ec   0x080075ec   0x00000108   Code   RO         4483    i.eMBPoll           mb.o
    0x080076f4   0x080076f4   0x00000064   Code   RO         4738    i.eMBRTUReceive     mbrtu.o
    0x08007758   0x08007758   0x00000018   Code   RO         4739    i.eMBRTUStart       mbrtu.o
    0x08007770   0x08007770   0x00000018   Code   RO         4740    i.eMBRTUStop        mbrtu.o
    0x08007788   0x08007788   0x00000008   Code   RO         4485    i.getPDUData        mb.o
    0x08007790   0x08007790   0x0000003c   Code   RO         2615    i.main              main.o
    0x080077cc   0x080077cc   0x00000070   Code   RO         4167    i.modbus_task_init  usartx.o
    0x0800783c   0x0800783c   0x00000018   Code   RO         4980    i.prveMBError2Exception  mbutils.o
    0x08007854   0x08007854   0x00000048   Code   RO         2462    i.rt_application_init  application.o
    0x0800789c   0x0800789c   0x0000001c   Code   RO         3472    i.rt_enter_critical  scheduler.o
    0x080078b8   0x080078b8   0x0000008c   Code   RO         3473    i.rt_exit_critical  scheduler.o
    0x08007944   0x08007944   0x000000ac   Code   RO         3320    i.rt_free           mem.o
    0x080079f0   0x080079f0   0x00000040   Code   RO         3788    i.rt_hw_board_init  bsp.o
    0x08007a30   0x08007a30   0x00000018   Code   RO         3739    i.rt_hw_hard_fault_exception  cpuport.o
    0x08007a48   0x08007a48   0x00000044   Code   RO         3740    i.rt_hw_stack_init  cpuport.o
    0x08007a8c   0x08007a8c   0x0000001c   Code   RO         3142    i.rt_interrupt_enter  irq.o
    0x08007aa8   0x08007aa8   0x0000001c   Code   RO         3144    i.rt_interrupt_leave  irq.o
    0x08007ac4   0x08007ac4   0x00000118   Code   RO         3321    i.rt_malloc         mem.o
    0x08007bdc   0x08007bdc   0x00000034   Code   RO         3178    i.rt_memset         kservice.o
    0x08007c10   0x08007c10   0x0000002e   Code   RO         3407    i.rt_object_delete  object.o
    0x08007c3e   0x08007c3e   0x0000002c   Code   RO         3408    i.rt_object_detach  object.o
    0x08007c6a   0x08007c6a   0x00000002   PAD
    0x08007c6c   0x08007c6c   0x00000048   Code   RO         3410    i.rt_object_get_information  object.o
    0x08007cb4   0x08007cb4   0x00000054   Code   RO         3412    i.rt_object_init    object.o
    0x08007d08   0x08007d08   0x0000000c   Code   RO         3413    i.rt_object_is_systemobject  object.o
    0x08007d14   0x08007d14   0x00000064   Code   RO         3474    i.rt_schedule       scheduler.o
    0x08007d78   0x08007d78   0x00000050   Code   RO         3475    i.rt_schedule_insert_thread  scheduler.o
    0x08007dc8   0x08007dc8   0x00000050   Code   RO         3476    i.rt_schedule_remove_thread  scheduler.o
    0x08007e18   0x08007e18   0x00000020   Code   RO         3089    i.rt_sem_init       ipc.o
    0x08007e38   0x08007e38   0x00000036   Code   RO         3090    i.rt_sem_release    ipc.o
    0x08007e6e   0x08007e6e   0x00000002   PAD
    0x08007e70   0x08007e70   0x000000d0   Code   RO         3091    i.rt_sem_take       ipc.o
    0x08007f40   0x08007f40   0x00000062   Code   RO         3188    i.rt_strncpy        kservice.o
    0x08007fa2   0x08007fa2   0x00000002   PAD
    0x08007fa4   0x08007fa4   0x00000068   Code   RO         3324    i.rt_system_heap_init  mem.o
    0x0800800c   0x0800800c   0x00000040   Code   RO         3477    i.rt_system_scheduler_init  scheduler.o
    0x0800804c   0x0800804c   0x00000028   Code   RO         3478    i.rt_system_scheduler_start  scheduler.o
    0x08008074   0x08008074   0x0000000c   Code   RO         3659    i.rt_system_timer_init  timer.o
    0x08008080   0x08008080   0x00000002   Code   RO         3660    i.rt_system_timer_thread_init  timer.o
    0x08008082   0x08008082   0x00000002   PAD
    0x08008084   0x08008084   0x00000078   Code   RO         3555    i.rt_thread_delay   thread.o
    0x080080fc   0x080080fc   0x00000060   Code   RO         3559    i.rt_thread_exit    thread.o
    0x0800815c   0x0800815c   0x00000088   Code   RO         3051    i.rt_thread_idle_entry  idle.o
    0x080081e4   0x080081e4   0x0000003c   Code   RO         3054    i.rt_thread_idle_init  idle.o
    0x08008220   0x08008220   0x00000088   Code   RO         3561    i.rt_thread_init    thread.o
    0x080082a8   0x080082a8   0x00000048   Code   RO         3563    i.rt_thread_resume  thread.o
    0x080082f0   0x080082f0   0x0000000c   Code   RO         3564    i.rt_thread_self    thread.o
    0x080082fc   0x080082fc   0x0000005c   Code   RO         3566    i.rt_thread_startup  thread.o
    0x08008358   0x08008358   0x00000044   Code   RO         3567    i.rt_thread_suspend  thread.o
    0x0800839c   0x0800839c   0x00000028   Code   RO         3568    i.rt_thread_timeout  thread.o
    0x080083c4   0x080083c4   0x00000064   Code   RO         3569    i.rt_thread_yield   thread.o
    0x08008428   0x08008428   0x0000000c   Code   RO         2863    i.rt_tick_get       clock.o
    0x08008434   0x08008434   0x0000002c   Code   RO         2864    i.rt_tick_increase  clock.o
    0x08008460   0x08008460   0x00000114   Code   RO         3661    i.rt_timer_check    timer.o
    0x08008574   0x08008574   0x00000032   Code   RO         3662    i.rt_timer_control  timer.o
    0x080085a6   0x080085a6   0x0000002a   Code   RO         3665    i.rt_timer_detach   timer.o
    0x080085d0   0x080085d0   0x00000032   Code   RO         3666    i.rt_timer_init     timer.o
    0x08008602   0x08008602   0x00000002   PAD
    0x08008604   0x08008604   0x000000ac   Code   RO         3668    i.rt_timer_start    timer.o
    0x080086b0   0x080086b0   0x0000003a   Code   RO         3669    i.rt_timer_stop     timer.o
    0x080086ea   0x080086ea   0x00000004   Code   RO         2904    i.rti_board_end     components.o
    0x080086ee   0x080086ee   0x00000004   Code   RO         2905    i.rti_board_start   components.o
    0x080086f2   0x080086f2   0x00000004   Code   RO         2906    i.rti_end           components.o
    0x080086f6   0x080086f6   0x00000004   Code   RO         2907    i.rti_start         components.o
    0x080086fa   0x080086fa   0x0000003e   Code   RO         5429    i.sqrtf             m_wm.l(sqrtf.o)
    0x08008738   0x08008738   0x000000e8   Code   RO         4168    i.uart1_dma_config  usartx.o
    0x08008820   0x08008820   0x000000e4   Code   RO         4170    i.uart3_dma_config  usartx.o
    0x08008904   0x08008904   0x000000e8   Code   RO         4171    i.Uart4_Dma_Config  usartx.o
    0x080089ec   0x080089ec   0x00000040   Code   RO         4712    i.usMBCRC16         mbcrc.o
    0x08008a2c   0x08008a2c   0x00000002   Code   RO         4658    i.vMBPortSerialEnable  portserial.o
    0x08008a2e   0x08008a2e   0x00000002   PAD
    0x08008a30   0x08008a30   0x0000001c   Code   RO         4620    i.xMBPortEventGet   portevent.o
    0x08008a4c   0x08008a4c   0x00000010   Code   RO         4621    i.xMBPortEventInit  portevent.o
    0x08008a5c   0x08008a5c   0x00000010   Code   RO         4622    i.xMBPortEventPost  portevent.o
    0x08008a6c   0x08008a6c   0x00000004   Code   RO         4660    i.xMBPortSerialPutByte  portserial.o
    0x08008a70   0x08008a70   0x00000034   Code   RO         4741    i.xMBRTUReceiveFSM  mbrtu.o
    0x08008aa4   0x08008aa4   0x00000028   Code   RO         4742    i.xMBRTUTimerT35Expired  mbrtu.o
    0x08008acc   0x08008acc   0x00000050   Code   RO         4743    i.xMBRTUTransmitFSM  mbrtu.o
    0x08008b1c   0x08008b1c   0x00000062   Code   RO         5395    x$fpl$d2f           fz_wm.l(d2f.o)
    0x08008b7e   0x08008b7e   0x00000002   PAD
    0x08008b80   0x08008b80   0x00000150   Code   RO         5397    x$fpl$dadd          fz_wm.l(daddsub_clz.o)
    0x08008cd0   0x08008cd0   0x00000018   Code   RO         5473    x$fpl$dcmpinf       fz_wm.l(dcmpi.o)
    0x08008ce8   0x08008ce8   0x000002b0   Code   RO         5404    x$fpl$ddiv          fz_wm.l(ddiv.o)
    0x08008f98   0x08008f98   0x0000005e   Code   RO         5407    x$fpl$dfix          fz_wm.l(dfix.o)
    0x08008ff6   0x08008ff6   0x00000002   PAD
    0x08008ff8   0x08008ff8   0x0000005a   Code   RO         5411    x$fpl$dfixu         fz_wm.l(dfixu.o)
    0x08009052   0x08009052   0x0000002e   Code   RO         5416    x$fpl$dflt          fz_wm.l(dflt_clz.o)
    0x08009080   0x08009080   0x00000026   Code   RO         5415    x$fpl$dfltu         fz_wm.l(dflt_clz.o)
    0x080090a6   0x080090a6   0x00000002   PAD
    0x080090a8   0x080090a8   0x00000078   Code   RO         5442    x$fpl$dleqf         fz_wm.l(dleqf.o)
    0x08009120   0x08009120   0x00000154   Code   RO         5421    x$fpl$dmul          fz_wm.l(dmul.o)
    0x08009274   0x08009274   0x0000009c   Code   RO         5444    x$fpl$dnaninf       fz_wm.l(dnaninf.o)
    0x08009310   0x08009310   0x0000000c   Code   RO         5446    x$fpl$dretinf       fz_wm.l(dretinf.o)
    0x0800931c   0x0800931c   0x0000006c   Code   RO         5423    x$fpl$drleqf        fz_wm.l(drleqf.o)
    0x08009388   0x08009388   0x000001d4   Code   RO         5399    x$fpl$dsub          fz_wm.l(daddsub_clz.o)
    0x0800955c   0x0800955c   0x00000056   Code   RO         5425    x$fpl$f2d           fz_wm.l(f2d.o)
    0x080095b2   0x080095b2   0x0000008c   Code   RO         5448    x$fpl$fnaninf       fz_wm.l(fnaninf.o)
    0x0800963e   0x0800963e   0x0000000a   Code   RO         5544    x$fpl$fpinit        fz_wm.l(fpinit.o)
    0x08009648   0x08009648   0x0000000a   Code   RO         5450    x$fpl$fretinf       fz_wm.l(fretinf.o)
    0x08009652   0x08009652   0x00000000   Code   RO         5452    x$fpl$usenofp       fz_wm.l(usenofp.o)
    0x08009652   0x08009652   0x00000040   Data   RO          841    .constdata          n32g45x_rcc.o
    0x08009692   0x08009692   0x00000122   Data   RO         3193    .constdata          kservice.o
    0x080097b4   0x080097b4   0x000002d0   Data   RO         3918    .constdata          user_can.o
    0x08009a84   0x08009a84   0x0000002c   Data   RO         4428    .constdata          user_adc.o
    0x08009ab0   0x08009ab0   0x00000200   Data   RO         4713    .constdata          mbcrc.o
    0x08009cb0   0x08009cb0   0x00000004   Data   RO         2908    .rti_fn.0           components.o
    0x08009cb4   0x08009cb4   0x00000004   Data   RO         2909    .rti_fn.0.end       components.o
    0x08009cb8   0x08009cb8   0x00000004   Data   RO         2910    .rti_fn.1.end       components.o
    0x08009cbc   0x08009cbc   0x00000004   Data   RO         2911    .rti_fn.6.end       components.o
    0x08009cc0   0x08009cc0   0x00000020   Data   RO         5614    Region$$Table       anon$$obj.o


    Execution Region ER_RW (Exec base: 0x20000000, Load base: 0x08009ce0, Size: 0x000003ec, Max: 0xffffffff, ABSOLUTE, COMPRESSED[0x000000e4])

    Exec Addr    Load Addr    Size         Type   Attr      Idx    E Section Name        Object

    0x20000000   COMPRESSED   0x00000004   Data   RW           16    .data               system_n32g45x.o
    0x20000004   COMPRESSED   0x00000004   Data   RW         2468    .data               application.o
    0x20000008   COMPRESSED   0x00000004   Data   RW         2469    .data               application.o
    0x2000000c   COMPRESSED   0x00000004   Data   RW         2470    .data               application.o
    0x20000010   COMPRESSED   0x00000004   Data   RW         2471    .data               application.o
    0x20000014   COMPRESSED   0x00000001   Data   RW         2472    .data               application.o
    0x20000015   COMPRESSED   0x00000001   Data   RW         2473    .data               application.o
    0x20000016   COMPRESSED   0x00000001   Data   RW         2474    .data               application.o
    0x20000017   COMPRESSED   0x00000001   Data   RW         2475    .data               application.o
    0x20000018   COMPRESSED   0x00000001   Data   RW         2476    .data               application.o
    0x20000019   COMPRESSED   0x00000003   PAD
    0x2000001c   COMPRESSED   0x00000014   Data   RW         2477    .data               application.o
    0x20000030   COMPRESSED   0x00000150   Data   RW         2756    .data               charger.o
    0x20000180   COMPRESSED   0x00000004   Data   RW         2866    .data               clock.o
    0x20000184   COMPRESSED   0x00000001   Data   RW         3145    .data               irq.o
    0x20000185   COMPRESSED   0x00000003   PAD
    0x20000188   COMPRESSED   0x00000018   Data   RW         3326    .data               mem.o
    0x200001a0   COMPRESSED   0x00000050   Data   RW         3415    .data               object.o
    0x200001f0   COMPRESSED   0x00000014   Data   RW         3480    .data               scheduler.o
    0x20000204   COMPRESSED   0x0000000c   Data   RW         3670    .data               timer.o
    0x20000210   COMPRESSED   0x00000004   Data   RW         3741    .data               cpuport.o
    0x20000214   COMPRESSED   0x00000004   Data   RW         3742    .data               cpuport.o
    0x20000218   COMPRESSED   0x00000004   Data   RW         3743    .data               cpuport.o
    0x2000021c   COMPRESSED   0x00000004   Data   RW         3744    .data               cpuport.o
    0x20000220   COMPRESSED   0x0000000c   Data   RW         3919    .data               user_can.o
    0x2000022c   COMPRESSED   0x00000044   Data   RW         4174    .data               usartx.o
    0x20000270   COMPRESSED   0x00000001   Data   RW         4179    .data               usartx.o
    0x20000271   COMPRESSED   0x00000003   PAD
    0x20000274   COMPRESSED   0x000000a8   Data   RW         4488    .data               mb.o
    0x2000031c   COMPRESSED   0x00000002   Data   RW         4623    .data               portevent.o
    0x2000031e   COMPRESSED   0x00000002   PAD
    0x20000320   COMPRESSED   0x0000000c   Data   RW         4744    .data               mbrtu.o
    0x2000032c   COMPRESSED   0x00000002   Data   RW         4950    .data               mbfuncother.o
    0x2000032e   COMPRESSED   0x00000002   PAD
    0x20000330   COMPRESSED   0x00000018   Data   RW         5020    .data               motor.o
    0x20000348   COMPRESSED   0x0000006c   Data   RW         5098    .data               balance.o
    0x200003b4   COMPRESSED   0x00000001   Data   RW         5273    .data               robot_select_init.o
    0x200003b5   COMPRESSED   0x00000003   PAD
    0x200003b8   COMPRESSED   0x00000034   Data   RW         5337    .data               rc_car.o


    Execution Region ER_ZI (Exec base: 0x200003ec, Load base: 0x08009dc4, Size: 0x00005b34, Max: 0xffffffff, ABSOLUTE)

    Exec Addr    Load Addr    Size         Type   Attr      Idx    E Section Name        Object

    0x200003ec        -       0x000024b0   Zero   RW         2463    .bss                application.o
    0x2000289c        -       0x00000010   Zero   RW         2464    .bss                application.o
    0x200028ac        -       0x00000010   Zero   RW         2465    .bss                application.o
    0x200028bc        -       0x00000010   Zero   RW         2466    .bss                application.o
    0x200028cc        -       0x00000010   Zero   RW         2467    .bss                application.o
    0x200028dc        -       0x00000178   Zero   RW         3055    .bss                idle.o
    0x20002a54        -       0x00000020   Zero   RW         3325    .bss                mem.o
    0x20002a74        -       0x00000100   Zero   RW         3479    .bss                scheduler.o
    0x20002b74        -       0x00000e7e   Zero   RW         4173    .bss                usartx.o
    0x200039f2   0x08009dc4   0x00000002   PAD
    0x200039f4        -       0x000007ee   Zero   RW         4487    .bss                mb.o
    0x200041e2        -       0x00000020   Zero   RW         4949    .bss                mbfuncother.o
    0x20004202   0x08009dc4   0x00000002   PAD
    0x20004204        -       0x00000438   Zero   RW         5019    .bss                motor.o
    0x2000463c        -       0x00000070   Zero   RW         5097    .bss                balance.o
    0x200046ac        -       0x00000014   Zero   RW         5272    .bss                robot_select_init.o
    0x200046c0        -       0x00000060   Zero   RW         5476    .bss                c_w.l(libspace.o)
    0x20004720        -       0x00000300   Zero   RW            2    HEAP                startup_n32g45x.o
    0x20004a20        -       0x00001500   Zero   RW            1    STACK               startup_n32g45x.o


==============================================================================

Image component sizes


      Code (inc. data)   RO Data    RW Data    ZI Data      Debug   Object Name

       850        226          0         41       9456      20546   application.o
      4712        420          0        108        112      21209   balance.o
        82          8          0          0          0      31938   bsp.o
      1698        122          0        336          0      12279   charger.o
        56         12          0          4          0       1357   clock.o
        16          0         16          0          0       2930   components.o
       308         26          0          0          0        860   context_rvds.o
        92          8          0         16          0       4154   cpuport.o
       128          0          0          0          0       2043   flash_wr.o
       196         26          0          0        376       4948   idle.o
       294          0          0          0          0       6293   ipc.o
        56         12          0          1          0       1742   irq.o
       222          6        290          0          0       6390   kservice.o
       502         16          0          0          0       2782   led.o
        60         10          0          0          0       1134   main.o
      2248        182          0        168       2030      20361   mb.o
        64          6        512          0          0       1436   mbcrc.o
       222          0          0          0          0       4002   mbfunccoils.o
       100          0          0          0          0       1628   mbfuncdisc.o
       260          0          0          0          0       5387   mbfuncholding.o
        80          0          0          0          0       1619   mbfuncinput.o
        36         10          0          2         32       1471   mbfuncother.o
       320         36          0         12          0      10525   mbrtu.o
        24          0          0          0          0        700   mbutils.o
       556         36          0         24         32       3708   mem.o
       136         10          0          0          0     295547   misc.o
      1064         42          0         24       1080       7010   motor.o
       518         24          0          0          0      10713   n32g45x_adc.o
      1292         48          0          0          0       8320   n32g45x_can.o
       512         68          0          0          0       9388   n32g45x_dma.o
        44         14          0          0          0       1323   n32g45x_exti.o
       420         56          0          0          0       8429   n32g45x_flash.o
       796         10          0          0          0       8801   n32g45x_gpio.o
       364         64          0          0          0       5929   n32g45x_it.o
        40         18          0          0          0       1815   n32g45x_iwdg.o
       684        128         64          0          0      16543   n32g45x_rcc.o
       142          0          0          0          0       3964   n32g45x_spi.o
      2132         52          0          0          0      25429   n32g45x_tim.o
       580          6          0          0          0       7836   n32g45x_usart.o
       258          4          0         80          0       7179   object.o
        60         14          0          2          0       2332   portevent.o
         6          0          0          0          0       1101   portserial.o
       952         74          0         52          0       3357   rc_car.o
       220         62          0          1         20       5486   robot_select_init.o
       532         74          0         20        256       8748   scheduler.o
        64         26        408          0       6144        948   startup_n32g45x.o
       412         44          0          4          0      98653   system_n32g45x.o
       736         40          0          0          0      10410   thread.o
       662         18          0         12          0      10140   timer.o
      5704        566          0         69       3710      29232   usartx.o
       662         40         44          0          0       4165   user_adc.o
      2168        118        720         12          0      15001   user_can.o

    ----------------------------------------------------------------------
     34384       2786       2086       1004      23252     779241   Object Totals
         0          0         32          0          0          0   (incl. Generated)
        42          4          0         16          4          0   (incl. Padding)

    ----------------------------------------------------------------------

      Code (inc. data)   RO Data    RW Data    ZI Data      Debug   Library Member Name

        90          0          0          0          0          0   __dczerorl2.o
         8          0          0          0          0         68   __main.o
         0          0          0          0          0          0   __rtentry.o
        12          0          0          0          0          0   __rtentry2.o
         6          0          0          0          0          0   __rtentry4.o
        52          8          0          0          0          0   __scatter.o
        28          0          0          0          0          0   __scatter_zi.o
        22          0          0          0          0        100   _rserrno.o
        18          0          0          0          0         80   exit.o
         6          0          0          0          0        152   heapauxi.o
         0          0          0          0          0          0   indicate_semi.o
         2          0          0          0          0          0   libinit.o
         6          0          0          0          0          0   libinit2.o
         2          0          0          0          0          0   libshutdown.o
         2          0          0          0          0          0   libshutdown2.o
         8          4          0          0         96         68   libspace.o
         8          4          0          0          0         68   rt_errno_addr_intlibspace.o
        68          0          0          0          0         68   rt_memclr.o
        78          0          0          0          0         80   rt_memclr_w.o
       138          0          0          0          0         68   rt_memcpy_v6.o
       100          0          0          0          0         80   rt_memcpy_w.o
         2          0          0          0          0          0   rtexit.o
        10          0          0          0          0          0   rtexit2.o
        12          4          0          0          0         68   sys_exit.o
        74          0          0          0          0         80   sys_stackheap_outer.o
         2          0          0          0          0         68   use_no_semi.o
        98          4          0          0          0        140   d2f.o
       804         16          0          0          0        368   daddsub_clz.o
        24          0          0          0          0        116   dcmpi.o
       688        140          0          0          0        256   ddiv.o
        94          4          0          0          0        140   dfix.o
        90          4          0          0          0        140   dfixu.o
        84          0          0          0          0        232   dflt_clz.o
       120          4          0          0          0        140   dleqf.o
       340         12          0          0          0        152   dmul.o
       156          4          0          0          0        140   dnaninf.o
        12          0          0          0          0        116   dretinf.o
       108          0          0          0          0        128   drleqf.o
        86          4          0          0          0        132   f2d.o
       140          4          0          0          0        132   fnaninf.o
        10          0          0          0          0        116   fpinit.o
        10          0          0          0          0        116   fretinf.o
         0          0          0          0          0          0   usenofp.o
        62          0          0          0          0        136   sqrtf.o

    ----------------------------------------------------------------------
      3690        216          0          0         96       3748   Library Totals
        10          0          0          0          0          0   (incl. Padding)

    ----------------------------------------------------------------------

      Code (inc. data)   RO Data    RW Data    ZI Data      Debug   Library Name

       754         20          0          0         96       1048   c_w.l
      2864        196          0          0          0       2564   fz_wm.l
        62          0          0          0          0        136   m_wm.l

    ----------------------------------------------------------------------
      3690        216          0          0         96       3748   Library Totals

    ----------------------------------------------------------------------

==============================================================================


      Code (inc. data)   RO Data    RW Data    ZI Data      Debug   

     38074       3002       2086       1004      23348     752321   Grand Totals
     38074       3002       2086        228      23348     752321   ELF Image Totals (compressed)
     38074       3002       2086        228          0          0   ROM Totals

==============================================================================

    Total RO  Size (Code + RO Data)                40160 (  39.22kB)
    Total RW  Size (RW Data + ZI Data)             24352 (  23.78kB)
    Total ROM Size (Code + RO Data + RW Data)      40388 (  39.44kB)

==============================================================================

